################################################################################
#                                                                              #
#      IAR Universal Linker V4.61T/W32                                         #
#                                                                              #
#           Link time     =  25/Feb/2018  16:18:29                             #
#           Target CPU    =  MSP430                                            #
#           List file     =  E:\zz-cc\c0708\0708-141\Project\Debug\List\08.map #
#           Output file 1 =  E:\zz-cc\c0708\0708-141\Project\Debug\Exe\08.txt  #
#                            Format: msp430_txt                                #
#           Command line  =  E:\zz-cc\c0708\0708-141\Project\Debug\Obj\adc.r43 #
#                            E:\zz-cc\c0708\0708-141\Project\Debug\Obj\crc32.r #
#                            43                                                #
#                            E:\zz-cc\c0708\0708-141\Project\Debug\Obj\dac.r43 #
#                            E:\zz-cc\c0708\0708-141\Project\Debug\Obj\fsfx.r4 #
#                            3                                                 #
#                            E:\zz-cc\c0708\0708-141\Project\Debug\Obj\gps.r43 #
#                            E:\zz-cc\c0708\0708-141\Project\Debug\Obj\gsm.r43 #
#                            E:\zz-cc\c0708\0708-141\Project\Debug\Obj\i2c_bh1 #
#                            750.r43                                           #
#                            E:\zz-cc\c0708\0708-141\Project\Debug\Obj\i2c_ee. #
#                            r43                                               #
#                            E:\zz-cc\c0708\0708-141\Project\Debug\Obj\i2c_htu #
#                            .r43                                              #
#                            E:\zz-cc\c0708\0708-141\Project\Debug\Obj\i2c_rtc #
#                            .r43                                              #
#                            E:\zz-cc\c0708\0708-141\Project\Debug\Obj\i2c_shr #
#                            1000.r43                                          #
#                            E:\zz-cc\c0708\0708-141\Project\Debug\Obj\it.r43  #
#                            E:\zz-cc\c0708\0708-141\Project\Debug\Obj\key.r43 #
#                            E:\zz-cc\c0708\0708-141\Project\Debug\Obj\lcd.r43 #
#                            E:\zz-cc\c0708\0708-141\Project\Debug\Obj\led.r43 #
#                            E:\zz-cc\c0708\0708-141\Project\Debug\Obj\logger. #
#                            r43                                               #
#                            E:\zz-cc\c0708\0708-141\Project\Debug\Obj\main.r4 #
#                            3                                                 #
#                            E:\zz-cc\c0708\0708-141\Project\Debug\Obj\modbus. #
#                            r43                                               #
#                            E:\zz-cc\c0708\0708-141\Project\Debug\Obj\ow.r43  #
#                            E:\zz-cc\c0708\0708-141\Project\Debug\Obj\print.r #
#                            43                                                #
#                            E:\zz-cc\c0708\0708-141\Project\Debug\Obj\rfkp.r4 #
#                            3                                                 #
#                            E:\zz-cc\c0708\0708-141\Project\Debug\Obj\rtc.r43 #
#                            E:\zz-cc\c0708\0708-141\Project\Debug\Obj\spi_max #
#                            31855.r43                                         #
#                            E:\zz-cc\c0708\0708-141\Project\Debug\Obj\spi_max #
#                            31865.r43                                         #
#                            E:\zz-cc\c0708\0708-141\Project\Debug\Obj\uart_pc #
#                            .r43                                              #
#                            E:\zz-cc\c0708\0708-141\Project\Debug\Obj\wireles #
#                            s.r43                                             #
#                            E:\zz-cc\c0708\0708-141\Project\Debug\Obj\wk2124. #
#                            r43                                               #
#                            -o                                                #
#                            E:\zz-cc\c0708\0708-141\Project\Debug\Exe\08.txt  #
#                            -Fmsp430_txt -l                                   #
#                            E:\zz-cc\c0708\0708-141\Project\Debug\List\08.map #
#                            -xmo                                              #
#                            "-IC:\Program Files (x86)\IAR Systems\Embedded Wo #
#                            rkbench 6.0 Evaluation\430\LIB\"                  #
#                            -f                                                #
#                            E:\zz-cc\c0708\0708-141\Project\..\APPxcl\lnk430F #
#                            248-app.xcl                                       #
#                            (-cmsp430 -QCODE_I=CODE_ID                        #
#                            -Z(DATA)DATA16_I,DATA16_Z,DATA16_N,DATA16_HEAP+_D #
#                            ATA16_HEAP_SIZE=1100-20FF                         #
#                            -Z(DATA)CODE_I -Z(DATA)CSTACK+_STACK_SIZE#        #
#                            -Z(CONST)INFO=1000-10FF                           #
#                            -Z(CONST)INFOA=10C0-10FF                          #
#                            -Z(CONST)INFOB=1080-10BF                          #
#                            -Z(CONST)INFOC=1040-107F                          #
#                            -Z(CONST)INFOD=1000-103F                          #
#                            -Z(CONST)DATA16_C,DATA16_ID,DIFUNCT,CHECKSUM=4000 #
#                            -F9BF                                             #
#                            -Z(CODE)CSTART,ISR_CODE,CODE_ID=4000-F9BF         #
#                            -P(CODE)CODE=4000-F9BF -Z(CODE)INTVEC=F9C0-F9FF   #
#                            -Z(CODE)RESET=F9FE-F9FF) -f                       #
#                            "C:\Program Files (x86)\IAR Systems\Embedded Work #
#                            bench 6.0 Evaluation\430\config\multiplier.xcl"   #
#                            (-e?Mul8Hw=?Mul8 -e?Mul16Hw=?Mul16                #
#                            -e?Mul16to32uHw=?Mul16to32u                       #
#                            -e?Mul16to32sHw=?Mul16to32s -e?Mul32Hw=?Mul32     #
#                            -e_Mul64iHw=_Mul64i                               #
#                            -e_Mul32u32uto64iHw=_Mul32u32uto64i               #
#                            -e?Mul32fHw=_Mul32f -e_Mul64fHwPtr=_Mul64fPtr)    #
#                            -D_STACK_SIZE=4B0                                 #
#                            "C:\Program Files (x86)\IAR Systems\Embedded Work #
#                            bench 6.0 Evaluation\430\LIB\DLIB\dl430fn.r43"    #
#                            -D_DATA16_HEAP_SIZE=50 -s __program_start         #
#                            -D_DATA20_HEAP_SIZE=50                            #
#                                                                              #
#                           Copyright (C) 1987-2010 IAR Systems AB.            #
################################################################################





                ****************************************
                *                                      *
                *           CROSS REFERENCE            *
                *                                      *
                ****************************************

       Program entry at :           4516  Relocatable, from module : ?cstart




                ****************************************
                *                                      *
                *            RUNTIME MODEL             *
                *                                      *
                ****************************************

  __SystemLibrary            = DLib
  __core                     = 430
  __dlib_file_descriptor     = 0
  __dlib_full_locale_support = 0
  __double_size              = 32
  __pic                      = no
  __reg_r4                   = free
  __reg_r5                   = free
  __rt_version               = 3



                ****************************************
                *                                      *
                *              MODULE MAP              *
                *                                      *
                ****************************************


  DEFINED ABSOLUTE ENTRIES
    *************************************************************************

  DEFINED ABSOLUTE ENTRIES
  PROGRAM MODULE, NAME : ?ABS_ENTRY_MOD

Absolute parts
           ENTRY                   ADDRESS         REF BY
           =====                   =======         ======
           _DATA20_HEAP_SIZE       0050 
           _DATA16_HEAP_SIZE       0050 
           _STACK_SIZE             04B0 
    *************************************************************************

  FILE NAME : E:\zz-cc\c0708\0708-141\Project\Debug\Obj\adc.r43
  PROGRAM MODULE, NAME : adc

  SEGMENTS IN THE MODULE
  ======================
DATA16_AN
  Relative segment, address: 01A0 - 01A1 (0x2 bytes), align: 0
  Segment part 1. ROOT.       Intra module refs:   ADC12ISR (it)
                                                   AdcInit
                                                   LoggerSample (logger)
                                                   timerb0_isr (it)
           ENTRY                   ADDRESS         REF BY
           =====                   =======         ======
           ADC12CTL0               01A0 
    -------------------------------------------------------------------------
DATA16_AN
  Relative segment, address: 01A2 - 01A3 (0x2 bytes), align: 0
  Segment part 2. ROOT.       Intra module refs:   AdcInit
           ENTRY                   ADDRESS         REF BY
           =====                   =======         ======
           ADC12CTL1               01A2 
    -------------------------------------------------------------------------
DATA16_AN
  Relative segment, address: 01A4 - 01A5 (0x2 bytes), align: 0
  Segment part 3. ROOT.       Intra module refs:   ADC12ISR (it)
                                                   AdcInit
                                                   LoggerSample (logger)
           ENTRY                   ADDRESS         REF BY
           =====                   =======         ======
           ADC12IFG                01A4 
    -------------------------------------------------------------------------
DATA16_AN
  Relative segment, address: 01A6 - 01A7 (0x2 bytes), align: 0
  Segment part 4. ROOT.       Intra module refs:   AdcInit
           ENTRY                   ADDRESS         REF BY
           =====                   =======         ======
           ADC12IE                 01A6 
    -------------------------------------------------------------------------
DATA16_AN
  Relative segment, address: 0080 - 0080 (0x1 bytes), align: 0
  Segment part 5. ROOT.       Intra module refs:   AdcInit
           ENTRY                   ADDRESS         REF BY
           =====                   =======         ======
           ADC12MCTL0              0080 
    -------------------------------------------------------------------------
DATA16_AN
  Relative segment, address: 0081 - 0081 (0x1 bytes), align: 0
  Segment part 6. ROOT.       Intra module refs:   AdcInit
           ENTRY                   ADDRESS         REF BY
           =====                   =======         ======
           ADC12MCTL1              0081 
    -------------------------------------------------------------------------
DATA16_AN
  Relative segment, address: 0082 - 0082 (0x1 bytes), align: 0
  Segment part 7. ROOT.       Intra module refs:   AdcInit
           ENTRY                   ADDRESS         REF BY
           =====                   =======         ======
           ADC12MCTL2              0082 
    -------------------------------------------------------------------------
DATA16_AN
  Relative segment, address: 0083 - 0083 (0x1 bytes), align: 0
  Segment part 8. ROOT.       Intra module refs:   AdcInit
           ENTRY                   ADDRESS         REF BY
           =====                   =======         ======
           ADC12MCTL3              0083 
    -------------------------------------------------------------------------
DATA16_AN
  Relative segment, address: 0084 - 0084 (0x1 bytes), align: 0
  Segment part 9. ROOT.       Intra module refs:   AdcInit
           ENTRY                   ADDRESS         REF BY
           =====                   =======         ======
           ADC12MCTL4              0084 
    -------------------------------------------------------------------------
DATA16_AN
  Relative segment, address: 0085 - 0085 (0x1 bytes), align: 0
  Segment part 10. ROOT.      Intra module refs:   AdcInit
           ENTRY                   ADDRESS         REF BY
           =====                   =======         ======
           ADC12MCTL5              0085 
    -------------------------------------------------------------------------
DATA16_AN
  Relative segment, address: 0086 - 0086 (0x1 bytes), align: 0
  Segment part 11. ROOT.      Intra module refs:   AdcInit
           ENTRY                   ADDRESS         REF BY
           =====                   =======         ======
           ADC12MCTL6              0086 
    -------------------------------------------------------------------------
DATA16_AN
  Relative segment, address: 0087 - 0087 (0x1 bytes), align: 0
  Segment part 12. ROOT.      Intra module refs:   AdcInit
           ENTRY                   ADDRESS         REF BY
           =====                   =======         ======
           ADC12MCTL7              0087 
    -------------------------------------------------------------------------
DATA16_AN
  Relative segment, address: 0031 - 0031 (0x1 bytes), align: 0
  Segment part 13. ROOT.      Intra module refs:   ADC12ISR (it)
                                                   AdcToValue
                                                   BufTx (logger)
                                                   CompBuf (main)
                                                   EnUniToAsc (gsm)
                                                   GetNumFromStr (gsm)
                                                   GetPosC (gsm)
                                                   GetPosS (main)
                                                   Gprs_SF_Deel (gsm)
                                                   GsmToPowOff (gsm)
                                                   I2C_EE_BufferWrite (i2c_ee)
                                                   I2c2Ack (i2c_rtc)
                                                   I2c2RecByte (i2c_rtc)
                                                   I2c2SendByte (i2c_rtc)
                                                   I2c2Start (i2c_rtc)
                                                   I2c2Stop (i2c_rtc)
                                                   I2cAck (i2c_ee)
                                                   I2cRecByte (i2c_ee)
                                                   I2cSendByte (i2c_ee)
                                                   I2cStart (i2c_ee)
                                                   I2cStop (i2c_ee)
                                                   KeyIsrDo (key)
                                                   KeyXiaoDou (key)
                                                   LoggerInit (logger)
                                                   LoggerRecOne (logger)
                                                   LoggerSample (logger)
                                                   McuInit (main)
                                                   PCBSQ_Record (logger)
                                                   PrintDeel (print)
                                                   PrintKeyClr (print)
                                                   SmsKeyOff (gsm)
                                                   SmsRecDeel (gsm)
                                                   StateA1ToEE (logger)
                                                   StateA2ToEE (logger)
                                                   StateBToEE (logger)
                                                   U0PduAnalyze (gsm)
                                                   U0SendByte (main)
                                                   U0SmsPdu (gsm)
                                                   U1SendByte (main)
                                                   USCI0RX_ISR (it)
                                                   USCI1RX_ISR (it)
                                                   ascii_2_hex (gsm)
                                                   decode (gsm)
                                                   hex_2_ascii (gsm)
                                                   main (main)
           ENTRY                   ADDRESS         REF BY
           =====                   =======         ======
           P5OUT                   0031 
    -------------------------------------------------------------------------
DATA16_AN
  Relative segment, address: 0036 - 0036 (0x1 bytes), align: 0
  Segment part 14. ROOT.      Intra module refs:   AdcInit
                                                   McuInit (main)
           ENTRY                   ADDRESS         REF BY
           =====                   =======         ======
           P6DIR                   0036 
    -------------------------------------------------------------------------
DATA16_AN
  Relative segment, address: 0037 - 0037 (0x1 bytes), align: 0
  Segment part 15. ROOT.      Intra module refs:   AdcInit
                                                   McuInit (main)
           ENTRY                   ADDRESS         REF BY
           =====                   =======         ======
           P6SEL                   0037 
    -------------------------------------------------------------------------
<CODE> 1 (was CODE)
  Relative segment, address: AD94 - AE69 (0xd6 bytes), align: 1
  Segment part 22.
           ENTRY                   ADDRESS         REF BY
           =====                   =======         ======
           AdcInit                 AD94            main (main)
               CSTACK = 00000000 ( 0000000A )
    -------------------------------------------------------------------------
<CODE> 1 (was CODE)
  Relative segment, address: 99D0 - 9CC7 (0x2f8 bytes), align: 1
  Segment part 17.
           ENTRY                   ADDRESS         REF BY
           =====                   =======         ======
           AdcToValue              99D0            LoggerCalculateValue (logger)
               calls direct
               CSTACK = 00000000 ( 00000052 )
    -------------------------------------------------------------------------
<CODE> 1 (was CODE)
  Relative segment, address: C65C - C66B (0x10 bytes), align: 1
  Segment part 18.            Intra module refs:   AdcToValue
           LOCAL                   ADDRESS         
           =====                   =======         
           ?Subroutine2            C65C 
    -------------------------------------------------------------------------
<CODE> 1 (was CODE)
  Relative segment, address: C5EC - C5FB (0x10 bytes), align: 1
  Segment part 19.            Intra module refs:   AdcToValue
           LOCAL                   ADDRESS         
           =====                   =======         
           ?Subroutine1            C5EC 
    -------------------------------------------------------------------------
<CODE> 1 (was CODE)
  Relative segment, address: C4C2 - C4D7 (0x16 bytes), align: 1
  Segment part 20.            Intra module refs:   AdcToValue
           LOCAL                   ADDRESS         
           =====                   =======         
           ?Subroutine0            C4C2 
    -------------------------------------------------------------------------
<CODE> 1 (was CODE)
  Relative segment, address: C5A6 - C5B7 (0x12 bytes), align: 1
  Segment part 21.            Intra module refs:   ?Subroutine0
                                                   AdcToValue
           LOCAL                   ADDRESS         
           =====                   =======         
           ?Subroutine3            C5A6 

    *************************************************************************

  FILE NAME : E:\zz-cc\c0708\0708-141\Project\Debug\Obj\crc32.r43
    *************************************************************************

  FILE NAME : E:\zz-cc\c0708\0708-141\Project\Debug\Obj\dac.r43
    *************************************************************************

  FILE NAME : E:\zz-cc\c0708\0708-141\Project\Debug\Obj\fsfx.r43
    *************************************************************************

  FILE NAME : E:\zz-cc\c0708\0708-141\Project\Debug\Obj\gps.r43
    *************************************************************************

  FILE NAME : E:\zz-cc\c0708\0708-141\Project\Debug\Obj\gsm.r43
  PROGRAM MODULE, NAME : gsm

  SEGMENTS IN THE MODULE
  ======================
DATA16_AN
  Relative segment, address: 0001 - 0001 (0x1 bytes), align: 0
  Segment part 1. ROOT.       Intra module refs:   GsmFireDeel
                                                   U0Deel
                                                   U0Init (main)
           ENTRY                   ADDRESS         REF BY
           =====                   =======         ======
           IE2                     0001 
    -------------------------------------------------------------------------
DATA16_AN
  Relative segment, address: 0021 - 0021 (0x1 bytes), align: 0
  Segment part 2. ROOT.       Intra module refs:   BellNn (main)
                                                   BellOne (main)
                                                   Bell_Off (logger)
                                                   Bell_Shan (logger)
                                                   KeyAlarm (key)
                                                   LoggerInit (logger)
                                                   McuInit (main)
                                                   PCBSQ_Record (logger)
                                                   SmsKeyOff
           ENTRY                   ADDRESS         REF BY
           =====                   =======         ======
           P1OUT                   0021 
    -------------------------------------------------------------------------
DATA16_AN
  Relative segment, address: 0022 - 0022 (0x1 bytes), align: 0
  Segment part 3. ROOT.       Intra module refs:   BellNn (main)
                                                   BellOne (main)
                                                   Bell_Off (logger)
                                                   Bell_Shan (logger)
                                                   KeyAlarm (key)
                                                   KeyIntSet (key)
                                                   KeyPortInit (key)
                                                   LoggerInit (logger)
                                                   McuInit (main)
                                                   PCBSQ_Record (logger)
                                                   SmsKeyOff
           ENTRY                   ADDRESS         REF BY
           =====                   =======         ======
           P1DIR                   0022 
    -------------------------------------------------------------------------
DATA16_AN
  Relative segment, address: 0029 - 0029 (0x1 bytes), align: 0
  Segment part 4. ROOT.       Intra module refs:   I2C_EE_BufferRead (i2c_ee)
                                                   I2C_EE_BufferWrite (i2c_ee)
                                                   I2c2Ack (i2c_rtc)
                                                   I2c2RecByte (i2c_rtc)
                                                   I2c2SendByte (i2c_rtc)
                                                   I2c2Start (i2c_rtc)
                                                   I2c2Stop (i2c_rtc)
                                                   I2cAck (i2c_ee)
                                                   I2cRecByte (i2c_ee)
                                                   I2cSeekEE (i2c_ee)
                                                   I2cSendByte (i2c_ee)
                                                   I2cStart (i2c_ee)
                                                   I2cStop (i2c_ee)
                                                   LoggerInit (logger)
                                                   McuInit (main)
                                                   PCBSQ_Record (logger)
                                                   SmsKeyOff
                                                   i2c_ee_read_to_pc (i2c_ee)
                                                   i2c_ee_read_to_u0 (i2c_ee)
           ENTRY                   ADDRESS         REF BY
           =====                   =======         ======
           P2OUT                   0029 
    -------------------------------------------------------------------------
DATA16_AN
  Relative segment, address: 002A - 002A (0x1 bytes), align: 0
  Segment part 5. ROOT.       Intra module refs:   I2C_EE_BufferRead (i2c_ee)
                                                   I2C_EE_BufferWrite (i2c_ee)
                                                   I2c2Ack (i2c_rtc)
                                                   I2c2RecByte (i2c_rtc)
                                                   I2c2SendByte (i2c_rtc)
                                                   I2c2Start (i2c_rtc)
                                                   I2c2Stop (i2c_rtc)
                                                   I2cAck (i2c_ee)
                                                   I2cRecByte (i2c_ee)
                                                   I2cSeekEE (i2c_ee)
                                                   I2cSendByte (i2c_ee)
                                                   I2cStart (i2c_ee)
                                                   I2cStop (i2c_ee)
                                                   LoggerInit (logger)
                                                   McuInit (main)
                                                   PCBSQ_Record (logger)
                                                   SmsKeyOff
                                                   i2c_ee_read_to_pc (i2c_ee)
                                                   i2c_ee_read_to_u0 (i2c_ee)
           ENTRY                   ADDRESS         REF BY
           =====                   =======         ======
           P2DIR                   002A 
    -------------------------------------------------------------------------
DATA16_AN
  Relative segment, address: 002E - 002E (0x1 bytes), align: 0
  Segment part 6. ROOT.       Intra module refs:   I2C_EE_BufferRead (i2c_ee)
                                                   I2C_EE_BufferWrite (i2c_ee)
                                                   I2c2Start (i2c_rtc)
                                                   I2cSeekEE (i2c_ee)
                                                   I2cStart (i2c_ee)
                                                   LoggerInit (logger)
                                                   McuInit (main)
                                                   PCBSQ_Record (logger)
                                                   SmsKeyOff
                                                   i2c_ee_read_to_pc (i2c_ee)
                                                   i2c_ee_read_to_u0 (i2c_ee)
           ENTRY                   ADDRESS         REF BY
           =====                   =======         ======
           P2SEL                   002E 
    -------------------------------------------------------------------------
DATA16_AN
  Relative segment, address: 002F - 002F (0x1 bytes), align: 0
  Segment part 7. ROOT.       Intra module refs:   I2C_EE_BufferRead (i2c_ee)
                                                   I2C_EE_BufferWrite (i2c_ee)
                                                   I2c2Ack (i2c_rtc)
                                                   I2c2RecByte (i2c_rtc)
                                                   I2c2SendByte (i2c_rtc)
                                                   I2c2Start (i2c_rtc)
                                                   I2c2Stop (i2c_rtc)
                                                   I2cAck (i2c_ee)
                                                   I2cRecByte (i2c_ee)
                                                   I2cSeekEE (i2c_ee)
                                                   I2cSendByte (i2c_ee)
                                                   I2cStart (i2c_ee)
                                                   I2cStop (i2c_ee)
                                                   LoggerInit (logger)
                                                   McuInit (main)
                                                   PCBSQ_Record (logger)
                                                   SmsKeyOff
                                                   i2c_ee_read_to_pc (i2c_ee)
                                                   i2c_ee_read_to_u0 (i2c_ee)
           ENTRY                   ADDRESS         REF BY
           =====                   =======         ======
           P2REN                   002F 
    -------------------------------------------------------------------------
DATA16_AN
  Relative segment, address: 0019 - 0019 (0x1 bytes), align: 0
  Segment part 8. ROOT.       Intra module refs:   ADC12ISR (it)
                                                   GprsDataHav (logger)
                                                   GprsSendOk (logger)
                                                   GsmFireDeel
                                                   GsmToPowOff
                                                   LoggerInit (logger)
                                                   LoggerSample (logger)
                                                   McuInit (main)
                                                   PCBSQ_Record (logger)
                                                   SmsKeyOff
                                                   SmsSendOk
           ENTRY                   ADDRESS         REF BY
           =====                   =======         ======
           P3OUT                   0019 
    -------------------------------------------------------------------------
DATA16_AN
  Relative segment, address: 001A - 001A (0x1 bytes), align: 0
  Segment part 9. ROOT.       Intra module refs:   ADC12ISR (it)
                                                   GprsDataHav (logger)
                                                   GprsSendOk (logger)
                                                   GsmFireDeel
                                                   GsmToPowOff
                                                   GsmToPowOn
                                                   LoggerExtInt (logger)
                                                   LoggerInit (logger)
                                                   LoggerSample (logger)
                                                   McuInit (main)
                                                   PCBSQ_Record (logger)
                                                   SmsKeyOff
                                                   SmsSendOk
                                                   U0Init (main)
                                                   U1Init (main)
           ENTRY                   ADDRESS         REF BY
           =====                   =======         ======
           P3DIR                   001A 
    -------------------------------------------------------------------------
DATA16_AN
  Relative segment, address: 001B - 001B (0x1 bytes), align: 0
  Segment part 10. ROOT.      Intra module refs:   GsmFireDeel
                                                   GsmToPowOff
                                                   GsmToPowOn
                                                   LoggerExtInt (logger)
                                                   McuInit (main)
                                                   U0Init (main)
                                                   U1Init (main)
           ENTRY                   ADDRESS         REF BY
           =====                   =======         ======
           P3SEL                   001B 
    -------------------------------------------------------------------------
DATA16_AN
  Relative segment, address: 0032 - 0032 (0x1 bytes), align: 0
  Segment part 12. ROOT.      Intra module refs:   ADC12ISR (it)
                                                   LoggerInit (logger)
                                                   LoggerSample (logger)
                                                   McuInit (main)
                                                   PCBSQ_Record (logger)
                                                   SmsKeyOff
           ENTRY                   ADDRESS         REF BY
           =====                   =======         ======
           P5DIR                   0032 
    -------------------------------------------------------------------------
DATA16_AN
  Relative segment, address: 0164 - 0165 (0x2 bytes), align: 0
  Segment part 13. ROOT.      Intra module refs:   Timer_A (it)
                                                   U0Clear
                                                   USCI0RX_ISR (it)
           ENTRY                   ADDRESS         REF BY
           =====                   =======         ======
           TACCTL1                 0164 
    -------------------------------------------------------------------------
DATA16_I
  Relative segment, address: 1100 - 1101 (0x2 bytes), align: 1
  Segment part 121.           Intra module refs:   Gprs_SF_Recv_Do
           ENTRY                   ADDRESS         REF BY
           =====                   =======         ======
           sServerCode             1100 
    -------------------------------------------------------------------------
DATA16_I
  Relative segment, address: 1102 - 1103 (0x2 bytes), align: 1
  Segment part 129.           Intra module refs:   U0Deel
           ENTRY                   ADDRESS         REF BY
           =====                   =======         ======
           sCMGS                   1102 
    -------------------------------------------------------------------------
DATA16_I
  Relative segment, address: 1104 - 1105 (0x2 bytes), align: 1
  Segment part 135.           Intra module refs:   ?Subroutine30
           ENTRY                   ADDRESS         REF BY
           =====                   =======         ======
           sOK                     1104 
    -------------------------------------------------------------------------
DATA16_I
  Relative segment, address: 1106 - 1107 (0x2 bytes), align: 1
  Segment part 137.           Intra module refs:   Gprs_SF_Recv_Do
                                                   U0Deel
           ENTRY                   ADDRESS         REF BY
           =====                   =======         ======
           sCONNECT                1106 
    -------------------------------------------------------------------------
DATA16_I
  Relative segment, address: 1108 - 1109 (0x2 bytes), align: 1
  Segment part 139.           Intra module refs:   U0Deel
           ENTRY                   ADDRESS         REF BY
           =====                   =======         ======
           sLN                     1108 
    -------------------------------------------------------------------------
DATA16_I
  Relative segment, address: 110A - 110B (0x2 bytes), align: 1
  Segment part 141.           Intra module refs:   U0Deel
           ENTRY                   ADDRESS         REF BY
           =====                   =======         ======
           s_0891                  110A 
    -------------------------------------------------------------------------
DATA16_I
  Relative segment, address: 110C - 110D (0x2 bytes), align: 1
  Segment part 149.           Intra module refs:   U0Deel
           ENTRY                   ADDRESS         REF BY
           =====                   =======         ======
           sERROR                  110C 
    -------------------------------------------------------------------------
DATA16_I
  Relative segment, address: 110E - 110F (0x2 bytes), align: 1
  Segment part 153.           Intra module refs:   U0Deel
           ENTRY                   ADDRESS         REF BY
           =====                   =======         ======
           sATCSQ                  110E 
    -------------------------------------------------------------------------
DATA16_I
  Relative segment, address: 1110 - 1111 (0x2 bytes), align: 1
  Segment part 175.           Intra module refs:   U0Deel
           ENTRY                   ADDRESS         REF BY
           =====                   =======         ======
           sMOBILE                 1110 
    -------------------------------------------------------------------------
DATA16_I
  Relative segment, address: 1112 - 1113 (0x2 bytes), align: 1
  Segment part 177.           Intra module refs:   U0Deel
           ENTRY                   ADDRESS         REF BY
           =====                   =======         ======
           sMobile                 1112 
    -------------------------------------------------------------------------
DATA16_I
  Relative segment, address: 1114 - 1115 (0x2 bytes), align: 1
  Segment part 191.           Intra module refs:   U0Deel
           ENTRY                   ADDRESS         REF BY
           =====                   =======         ======
           sCPIN_NOT               1114 
    -------------------------------------------------------------------------
DATA16_I
  Relative segment, address: 1116 - 1117 (0x2 bytes), align: 1
  Segment part 195.           Intra module refs:   Gprs_SF_Recv_Do
           ENTRY                   ADDRESS         REF BY
           =====                   =======         ======
           sALREADY                1116 
    -------------------------------------------------------------------------
DATA16_I
  Relative segment, address: 1118 - 1119 (0x2 bytes), align: 1
  Segment part 197.           Intra module refs:   Gprs_SF_Recv_Do
           ENTRY                   ADDRESS         REF BY
           =====                   =======         ======
           sFAIL                   1118 
    -------------------------------------------------------------------------
DATA16_C
  Relative segment, address: 40CC - 40D2 (0x7 bytes), align: 0
  Segment part 15.            Intra module refs:   Segment part 122
    -------------------------------------------------------------------------
DATA16_C
  Relative segment, address: 40D3 - 40D7 (0x5 bytes), align: 0
  Segment part 19.            Intra module refs:   Segment part 130
    -------------------------------------------------------------------------
DATA16_C
  Relative segment, address: 40D8 - 40DA (0x3 bytes), align: 0
  Segment part 22.            Intra module refs:   Segment part 136
    -------------------------------------------------------------------------
DATA16_C
  Relative segment, address: 40DB - 40E2 (0x8 bytes), align: 0
  Segment part 23.            Intra module refs:   Segment part 138
    -------------------------------------------------------------------------
DATA16_C
  Relative segment, address: 40E3 - 40E5 (0x3 bytes), align: 0
  Segment part 24.            Intra module refs:   Segment part 140
    -------------------------------------------------------------------------
DATA16_C
  Relative segment, address: 40E6 - 40EA (0x5 bytes), align: 0
  Segment part 25.            Intra module refs:   Segment part 142
    -------------------------------------------------------------------------
DATA16_C
  Relative segment, address: 40EB - 40F1 (0x7 bytes), align: 0
  Segment part 29.            Intra module refs:   Segment part 150
    -------------------------------------------------------------------------
DATA16_C
  Relative segment, address: 40F2 - 40F6 (0x5 bytes), align: 0
  Segment part 31.            Intra module refs:   Segment part 154
    -------------------------------------------------------------------------
DATA16_C
  Relative segment, address: 40F7 - 40FD (0x7 bytes), align: 0
  Segment part 42.            Intra module refs:   Segment part 176
    -------------------------------------------------------------------------
DATA16_C
  Relative segment, address: 40FE - 4104 (0x7 bytes), align: 0
  Segment part 43.            Intra module refs:   Segment part 178
    -------------------------------------------------------------------------
DATA16_C
  Relative segment, address: 4105 - 4114 (0x10 bytes), align: 0
  Segment part 50.            Intra module refs:   Segment part 192
    -------------------------------------------------------------------------
DATA16_C
  Relative segment, address: 4115 - 411C (0x8 bytes), align: 0
  Segment part 52.            Intra module refs:   Segment part 196
    -------------------------------------------------------------------------
DATA16_C
  Relative segment, address: 411D - 4121 (0x5 bytes), align: 0
  Segment part 53.            Intra module refs:   Segment part 198
    -------------------------------------------------------------------------
DATA16_C
  Relative segment, address: 4122 - 4128 (0x7 bytes), align: 0
  Segment part 54.            Intra module refs:   GsmOnErrDeel
    -------------------------------------------------------------------------
DATA16_C
  Relative segment, address: 4129 - 4131 (0x9 bytes), align: 0
  Segment part 55.            Intra module refs:   PowInDeel
    -------------------------------------------------------------------------
DATA16_C
  Relative segment, address: 4132 - 413B (0xa bytes), align: 0
  Segment part 56.            Intra module refs:   PowInDeel
    -------------------------------------------------------------------------
DATA16_C
  Relative segment, address: 413C - 4142 (0x7 bytes), align: 0
  Segment part 57.            Intra module refs:   GsmFireDeel
    -------------------------------------------------------------------------
DATA16_C
  Relative segment, address: 4143 - 4146 (0x4 bytes), align: 0
  Segment part 58.            Intra module refs:   Gprs_Exit_Close_Deel
                                                   GsmFireDeel
    -------------------------------------------------------------------------
DATA16_C
  Relative segment, address: 4147 - 4154 (0xe bytes), align: 0
  Segment part 59.            Intra module refs:   GsmFireDeel
    -------------------------------------------------------------------------
DATA16_C
  Relative segment, address: 4155 - 415D (0x9 bytes), align: 0
  Segment part 60.            Intra module refs:   GsmFireDeel
    -------------------------------------------------------------------------
DATA16_C
  Relative segment, address: 415E - 4166 (0x9 bytes), align: 0
  Segment part 61.            Intra module refs:   CsqDeel
                                                   GsmInitDeel
    -------------------------------------------------------------------------
DATA16_C
  Relative segment, address: 4167 - 416D (0x7 bytes), align: 0
  Segment part 62.            Intra module refs:   rtcFromCTDstr
    -------------------------------------------------------------------------
DATA16_C
  Relative segment, address: 416E - 4181 (0x14 bytes), align: 0
  Segment part 63.            Intra module refs:   SendIpPortFromEE
    -------------------------------------------------------------------------
DATA16_C
  Relative segment, address: 4182 - 4184 (0x3 bytes), align: 0
  Segment part 64.            Intra module refs:   SendIpPortFromEE
    -------------------------------------------------------------------------
DATA16_C
  Relative segment, address: 4185 - 4187 (0x3 bytes), align: 0
  Segment part 65.            Intra module refs:   ?Subroutine13
                                                   SendIpPortFromEE
    -------------------------------------------------------------------------
DATA16_C
  Relative segment, address: 4188 - 418D (0x6 bytes), align: 0
  Segment part 66.            Intra module refs:   GsmInitDeel
    -------------------------------------------------------------------------
DATA16_C
  Relative segment, address: 418E - 4194 (0x7 bytes), align: 0
  Segment part 67.            Intra module refs:   GsmInitDeel
    -------------------------------------------------------------------------
DATA16_C
  Relative segment, address: 4195 - 419A (0x6 bytes), align: 0
  Segment part 68.            Intra module refs:   GsmInitDeel
    -------------------------------------------------------------------------
DATA16_C
  Relative segment, address: 419B - 41A3 (0x9 bytes), align: 0
  Segment part 69.            Intra module refs:   GsmInitDeel
    -------------------------------------------------------------------------
DATA16_C
  Relative segment, address: 41A4 - 41A8 (0x5 bytes), align: 0
  Segment part 70.            Intra module refs:   GsmInitDeel
    -------------------------------------------------------------------------
DATA16_C
  Relative segment, address: 41A9 - 41AF (0x7 bytes), align: 0
  Segment part 71.            Intra module refs:   GsmInitDeel
    -------------------------------------------------------------------------
DATA16_C
  Relative segment, address: 41B0 - 41BA (0xb bytes), align: 0
  Segment part 72.            Intra module refs:   GsmInitDeel
    -------------------------------------------------------------------------
DATA16_C
  Relative segment, address: 41BB - 41C5 (0xb bytes), align: 0
  Segment part 73.            Intra module refs:   GsmInitDeel
    -------------------------------------------------------------------------
DATA16_C
  Relative segment, address: 41C6 - 41D1 (0xc bytes), align: 0
  Segment part 74.            Intra module refs:   GsmInitDeel
    -------------------------------------------------------------------------
DATA16_C
  Relative segment, address: 41D2 - 41DC (0xb bytes), align: 0
  Segment part 75.            Intra module refs:   GsmInitDeel
    -------------------------------------------------------------------------
DATA16_C
  Relative segment, address: 41DD - 41E5 (0x9 bytes), align: 0
  Segment part 76.            Intra module refs:   GsmInitDeel
    -------------------------------------------------------------------------
DATA16_C
  Relative segment, address: 41E6 - 41F1 (0xc bytes), align: 0
  Segment part 77.            Intra module refs:   GsmInitDeel
    -------------------------------------------------------------------------
DATA16_C
  Relative segment, address: 41F2 - 41FA (0x9 bytes), align: 0
  Segment part 78.            Intra module refs:   GsmInitDeel
    -------------------------------------------------------------------------
DATA16_C
  Relative segment, address: 41FB - 4206 (0xc bytes), align: 0
  Segment part 79.            Intra module refs:   GsmInitDeel
    -------------------------------------------------------------------------
DATA16_C
  Relative segment, address: 4207 - 4213 (0xd bytes), align: 0
  Segment part 80.            Intra module refs:   Gprs_Exit_Close_Deel
                                                   GsmInitDeel
    -------------------------------------------------------------------------
DATA16_C
  Relative segment, address: 4214 - 4221 (0xe bytes), align: 0
  Segment part 81.            Intra module refs:   GsmInitDeel
    -------------------------------------------------------------------------
DATA16_C
  Relative segment, address: 4222 - 4229 (0x8 bytes), align: 0
  Segment part 82.            Intra module refs:   GsmInitDeel
    -------------------------------------------------------------------------
DATA16_C
  Relative segment, address: 422A - 4238 (0xf bytes), align: 0
  Segment part 83.            Intra module refs:   GsmInitDeel
    -------------------------------------------------------------------------
DATA16_C
  Relative segment, address: 4239 - 4251 (0x19 bytes), align: 0
  Segment part 84.            Intra module refs:   GsmInitDeel
    -------------------------------------------------------------------------
DATA16_C
  Relative segment, address: 4252 - 4259 (0x8 bytes), align: 0
  Segment part 85.            Intra module refs:   GsmInitDeel
    -------------------------------------------------------------------------
DATA16_C
  Relative segment, address: 425A - 4264 (0xb bytes), align: 0
  Segment part 86.            Intra module refs:   GsmInitDeel
    -------------------------------------------------------------------------
DATA16_C
  Relative segment, address: 4265 - 426B (0x7 bytes), align: 0
  Segment part 87.            Intra module refs:   GsmInitDeel
    -------------------------------------------------------------------------
DATA16_C
  Relative segment, address: 426C - 4276 (0xb bytes), align: 0
  Segment part 88.            Intra module refs:   GsmInitDeel
    -------------------------------------------------------------------------
DATA16_C
  Relative segment, address: 4277 - 427E (0x8 bytes), align: 0
  Segment part 89.            Intra module refs:   GsmInitDeel
    -------------------------------------------------------------------------
DATA16_C
  Relative segment, address: 427F - 4290 (0x12 bytes), align: 0
  Segment part 90.            Intra module refs:   GsmInitDeel
    -------------------------------------------------------------------------
DATA16_C
  Relative segment, address: 4291 - 4299 (0x9 bytes), align: 0
  Segment part 91.            Intra module refs:   GsmInitDeel
    -------------------------------------------------------------------------
DATA16_C
  Relative segment, address: 429A - 42AC (0x13 bytes), align: 0
  Segment part 92.            Intra module refs:   GsmInitDeel
    -------------------------------------------------------------------------
DATA16_C
  Relative segment, address: 42AD - 42B4 (0x8 bytes), align: 0
  Segment part 93.            Intra module refs:   GsmInitDeel
    -------------------------------------------------------------------------
DATA16_C
  Relative segment, address: 42B5 - 42BF (0xb bytes), align: 0
  Segment part 94.            Intra module refs:   GsmInitDeel
    -------------------------------------------------------------------------
DATA16_C
  Relative segment, address: 42C0 - 42C5 (0x6 bytes), align: 0
  Segment part 95.            Intra module refs:   GsmInitDeel
    -------------------------------------------------------------------------
DATA16_C
  Relative segment, address: 42C6 - 42CD (0x8 bytes), align: 0
  Segment part 96.            Intra module refs:   GsmInitDeel
    -------------------------------------------------------------------------
DATA16_C
  Relative segment, address: 42CE - 42DB (0xe bytes), align: 0
  Segment part 97.            Intra module refs:   Gprs_Exit_Close_Deel
    -------------------------------------------------------------------------
DATA16_C
  Relative segment, address: 42DC - 42E4 (0x9 bytes), align: 0
  Segment part 98.            Intra module refs:   U0Deel
    -------------------------------------------------------------------------
DATA16_C
  Relative segment, address: 42E5 - 42F5 (0x11 bytes), align: 0
  Segment part 99.            Intra module refs:   U0Deel
    -------------------------------------------------------------------------
DATA16_C
  Relative segment, address: 42F6 - 42F8 (0x3 bytes), align: 0
  Segment part 100.           Intra module refs:   U0Deel
    -------------------------------------------------------------------------
DATA16_C
  Relative segment, address: 42F9 - 42FB (0x3 bytes), align: 0
  Segment part 101.           Intra module refs:   ?Subroutine48
    -------------------------------------------------------------------------
DATA16_C
  Relative segment, address: 42FC - 42FE (0x3 bytes), align: 0
  Segment part 102.           Intra module refs:   U0Deel
    -------------------------------------------------------------------------
DATA16_C
  Relative segment, address: 42FF - 4305 (0x7 bytes), align: 0
  Segment part 103.           Intra module refs:   U0Deel
    -------------------------------------------------------------------------
DATA16_C
  Relative segment, address: 4306 - 4309 (0x4 bytes), align: 0
  Segment part 104.           Intra module refs:   U0Deel
    -------------------------------------------------------------------------
DATA16_C
  Relative segment, address: 430A - 4312 (0x9 bytes), align: 0
  Segment part 105.           Intra module refs:   U0SmsLen
    -------------------------------------------------------------------------
DATA16_C
  Relative segment, address: 4313 - 431D (0xb bytes), align: 0
  Segment part 106.           Intra module refs:   U0SmsPdu
    -------------------------------------------------------------------------
DATA16_C
  Relative segment, address: 431E - 4320 (0x3 bytes), align: 0
  Segment part 107.           Intra module refs:   U0SmsPdu
    -------------------------------------------------------------------------
DATA16_C
  Relative segment, address: 4321 - 4327 (0x7 bytes), align: 0
  Segment part 108.           Intra module refs:   U0SmsPdu
    -------------------------------------------------------------------------
DATA16_C
  Relative segment, address: 4328 - 4338 (0x11 bytes), align: 0
  Segment part 109.           Intra module refs:   hex_2_ascii
    -------------------------------------------------------------------------
DATA16_C
  Relative segment, address: 4339 - 4345 (0xd bytes), align: 0
  Segment part 110.           Intra module refs:   ?Subroutine8
                                                   GsmFireDeel
    -------------------------------------------------------------------------
DATA16_C
  Relative segment, address: 4346 - 4350 (0xb bytes), align: 0
  Segment part 111.           Intra module refs:   GsmToPowOff
    -------------------------------------------------------------------------
DATA16_C
  Relative segment, address: 4351 - 4353 (0x3 bytes), align: 0
  Segment part 112.           Intra module refs:   GetGsmXh
    -------------------------------------------------------------------------
DATA16_C
  Relative segment, address: 4354 - 435D (0xa bytes), align: 0
  Segment part 118.           Intra module refs:   Gprs_SF_Recv_Do
    -------------------------------------------------------------------------
DATA16_C
  Relative segment, address: 435E - 4369 (0xc bytes), align: 0
  Segment part 119.           Intra module refs:   Gprs_SF_Deel
    -------------------------------------------------------------------------
DATA16_C
  Relative segment, address: 436A - 4377 (0xe bytes), align: 0
  Segment part 120.           Intra module refs:   Gprs_SF_Deel
    -------------------------------------------------------------------------
DATA16_C
  Relative segment, address: 4378 - 438B (0x14 bytes), align: 0
  Segment part 202.           Intra module refs:   GetPowUni
           ENTRY                   ADDRESS         REF BY
           =====                   =======         ======
           ff_power_off            4378 
    -------------------------------------------------------------------------
DATA16_C
  Relative segment, address: 438C - 4397 (0xc bytes), align: 0
  Segment part 203.           Intra module refs:   GetPowUni
           ENTRY                   ADDRESS         REF BY
           =====                   =======         ======
           ff_power_on             438C 
    -------------------------------------------------------------------------
DATA16_C
  Relative segment, address: 4398 - 439B (0x4 bytes), align: 0
  Segment part 204.           Intra module refs:   GetUniSet
           ENTRY                   ADDRESS         REF BY
           =====                   =======         ======
           ff_set                  4398 
    -------------------------------------------------------------------------
DATA16_C
  Relative segment, address: 439C - 439F (0x4 bytes), align: 0
  Segment part 205.           Intra module refs:   GetUniSet
           ENTRY                   ADDRESS         REF BY
           =====                   =======         ======
           ff_ok                   439C 
    -------------------------------------------------------------------------
DATA16_C
  Relative segment, address: 43A0 - 43A3 (0x4 bytes), align: 0
  Segment part 206.           Intra module refs:   GetUniSet
           ENTRY                   ADDRESS         REF BY
           =====                   =======         ======
           ff_fail                 43A0 
    -------------------------------------------------------------------------
<CODE> 1 (was CODE)
  Relative segment, address: B6E6 - B755 (0x70 bytes), align: 1
  Segment part 376.
           ENTRY                   ADDRESS         REF BY
           =====                   =======         ======
           GsmLoop                 B6E6            LoggerLoop (logger)
               calls direct
               CSTACK = 00000000 ( 00000002 )
    -------------------------------------------------------------------------
<CODE> 1 (was CODE)
  Relative segment, address: BE70 - BEAF (0x40 bytes), align: 1
  Segment part 375.           Intra module refs:   GsmLoop
           ENTRY                   ADDRESS         REF BY
           =====                   =======         ======
           GsmOnErrDeel            BE70 
               calls direct
               CSTACK = 00000000 ( 00000002 )
    -------------------------------------------------------------------------
<CODE> 1 (was CODE)
  Relative segment, address: 64BC - 64DB (0x20 bytes), align: 1
  Segment part 222.
           ENTRY                   ADDRESS         REF BY
           =====                   =======         ======
           Gprs_SF_XLH_ToEE        64BC            LoggerConfigFirst (logger)
               calls direct
               CSTACK = 00000000 ( 00000004 )
    -------------------------------------------------------------------------
<CODE> 1 (was CODE)
  Relative segment, address: 64DC - 64F3 (0x18 bytes), align: 1
  Segment part 223.
           ENTRY                   ADDRESS         REF BY
           =====                   =======         ======
           Gprs_SF_XLH_FromEE      64DC            LoggerExtInt (logger)
               calls direct
               CSTACK = 00000000 ( 00000004 )
    -------------------------------------------------------------------------
<CODE> 1 (was CODE)
  Relative segment, address: 64F4 - 64F9 (0x6 bytes), align: 1
  Segment part 226.           Intra module refs:   U0PduAnalyze
           LOCAL                   ADDRESS         
           =====                   =======         
           ?Subroutine3            64F4 
    -------------------------------------------------------------------------
<CODE> 1 (was CODE)
  Relative segment, address: 64FA - 6507 (0xe bytes), align: 1
  Segment part 227.           Intra module refs:   Gprs_SF_Deel
           LOCAL                   ADDRESS         
           =====                   =======         
           ?Subroutine26           64FA 
    -------------------------------------------------------------------------
<CODE> 1 (was CODE)
  Relative segment, address: 6508 - 650F (0x8 bytes), align: 1
  Segment part 229.           Intra module refs:   rtcFromCTDstr
           LOCAL                   ADDRESS         
           =====                   =======         
           ?Subroutine34           6508 
    -------------------------------------------------------------------------
<CODE> 1 (was CODE)
  Relative segment, address: 6510 - 654D (0x3e bytes), align: 1
  Segment part 232.           Intra module refs:   SmsRecDeel
           ENTRY                   ADDRESS         REF BY
           =====                   =======         ======
           GetUniSet               6510 
               CSTACK = 00000000 ( 00000004 )
    -------------------------------------------------------------------------
<CODE> 1 (was CODE)
  Relative segment, address: 654E - 655B (0xe bytes), align: 1
  Segment part 233.           Intra module refs:   GetNumFromStr
                                                   SmsRecDeel
           ENTRY                   ADDRESS         REF BY
           =====                   =======         ======
           IsNum                   654E 
               CSTACK = 00000000 ( 00000002 )
    -------------------------------------------------------------------------
<CODE> 1 (was CODE)
  Relative segment, address: 655C - 6599 (0x3e bytes), align: 1
  Segment part 234.           Intra module refs:   ?Subroutine10
                                                   GetZvalueFromStr
                                                   bbFromXYZDstr
                                                   rtcFromCTDstr
           ENTRY                   ADDRESS         REF BY
           =====                   =======         ======
           GetNumFromStr           655C 
               calls direct
               CSTACK = 00000000 ( 0000000A )
    -------------------------------------------------------------------------
<CODE> 1 (was CODE)
  Relative segment, address: 659A - 65BD (0x24 bytes), align: 1
  Segment part 235.           Intra module refs:   Segment part 247
                                                   U0PduAnalyze
                                                   bbFromLHDstr
                                                   bbFromXYZDstr
                                                   rtcFromCTDstr
           ENTRY                   ADDRESS         REF BY
           =====                   =======         ======
           GetPosC                 659A 
               CSTACK = 00000000 ( 00000004 )
    -------------------------------------------------------------------------
<CODE> 1 (was CODE)
  Relative segment, address: 65BE - 66D9 (0x11c bytes), align: 1
  Segment part 236.           Intra module refs:   SmsRecDeel
           ENTRY                   ADDRESS         REF BY
           =====                   =======         ======
           rtcFromCTDstr           65BE 
               calls direct
               CSTACK = 00000000 ( 00000024 )
    -------------------------------------------------------------------------
<CODE> 1 (was CODE)
  Relative segment, address: 66DA - 66E5 (0xc bytes), align: 1
  Segment part 237.           Intra module refs:   rtcFromCTDstr
           LOCAL                   ADDRESS         
           =====                   =======         
           ?Subroutine44           66DA 
    -------------------------------------------------------------------------
<CODE> 1 (was CODE)
  Relative segment, address: 66E6 - 66ED (0x8 bytes), align: 1
  Segment part 238.           Intra module refs:   rtcFromCTDstr
           LOCAL                   ADDRESS         
           =====                   =======         
           ?Subroutine43           66E6 
    -------------------------------------------------------------------------
<CODE> 1 (was CODE)
  Relative segment, address: 66EE - 6873 (0x186 bytes), align: 1
  Segment part 239.           Intra module refs:   SmsRecDeel
           ENTRY                   ADDRESS         REF BY
           =====                   =======         ======
           bbFromXYZDstr           66EE 
               calls direct
               CSTACK = 00000000 ( 0000001E )
    -------------------------------------------------------------------------
<CODE> 1 (was CODE)
  Relative segment, address: 6874 - 687B (0x8 bytes), align: 1
  Segment part 240.           Intra module refs:   bbFromXYZDstr
           LOCAL                   ADDRESS         
           =====                   =======         
           ?Subroutine41           6874 
    -------------------------------------------------------------------------
<CODE> 1 (was CODE)
  Relative segment, address: 687C - 6887 (0xc bytes), align: 1
  Segment part 241.           Intra module refs:   bbFromXYZDstr
           LOCAL                   ADDRESS         
           =====                   =======         
           ?Subroutine32           687C 
    -------------------------------------------------------------------------
<CODE> 1 (was CODE)
  Relative segment, address: 6888 - 6897 (0x10 bytes), align: 1
  Segment part 242.           Intra module refs:   bbFromXYZDstr
           LOCAL                   ADDRESS         
           =====                   =======         
           ?Subroutine10           6888 
    -------------------------------------------------------------------------
<CODE> 1 (was CODE)
  Relative segment, address: 6898 - 68AF (0x18 bytes), align: 1
  Segment part 243.           Intra module refs:   bbFromXYZDstr
           LOCAL                   ADDRESS         
           =====                   =======         
           ?Subroutine4            6898 
    -------------------------------------------------------------------------
<CODE> 1 (was CODE)
  Relative segment, address: 68B0 - 68C9 (0x1a bytes), align: 1
  Segment part 244.           Intra module refs:   GetZvalueFromStr
           ENTRY                   ADDRESS         REF BY
           =====                   =======         ======
           cf10                    68B0 
               CSTACK = 00000000 ( 00000002 )
    -------------------------------------------------------------------------
<CODE> 1 (was CODE)
  Relative segment, address: 68CA - 6955 (0x8c bytes), align: 1
  Segment part 245.           Intra module refs:   bbFromLHDstr
           ENTRY                   ADDRESS         REF BY
           =====                   =======         ======
           GetZvalueFromStr        68CA 
               calls direct
               CSTACK = 00000000 ( 00000016 )
    -------------------------------------------------------------------------
<CODE> 1 (was CODE)
  Relative segment, address: 6956 - 6957 (0x2 bytes), align: 1
  Segment part 246.           Intra module refs:   GetZvalueFromStr
           LOCAL                   ADDRESS         
           =====                   =======         
           ?Subroutine31           6956 
    -------------------------------------------------------------------------
<CODE> 1 (was CODE)
  Relative segment, address: 6958 - 6961 (0xa bytes), align: 1
  Segment part 247.           Intra module refs:   ?Subroutine31
                                                   U0Deel
    -------------------------------------------------------------------------
<CODE> 1 (was CODE)
  Relative segment, address: 6962 - 69F9 (0x98 bytes), align: 1
  Segment part 248.           Intra module refs:   SmsRecDeel
           ENTRY                   ADDRESS         REF BY
           =====                   =======         ======
           bbFromLHDstr            6962 
               calls direct
               CSTACK = 00000000 ( 00000010 )
    -------------------------------------------------------------------------
<CODE> 1 (was CODE)
  Relative segment, address: 69FA - 6A01 (0x8 bytes), align: 1
  Segment part 249.           Intra module refs:   bbFromLHDstr
           LOCAL                   ADDRESS         
           =====                   =======         
           ?Subroutine42           69FA 
    -------------------------------------------------------------------------
<CODE> 1 (was CODE)
  Relative segment, address: 6A02 - 6A2D (0x2c bytes), align: 1
  Segment part 250.           Intra module refs:   SmsRecDeel
           ENTRY                   ADDRESS         REF BY
           =====                   =======         ======
           EnUniToAsc              6A02 
               CSTACK = 00000000 ( 00000004 )
    -------------------------------------------------------------------------
<CODE> 1 (was CODE)
  Relative segment, address: 6A2E - 6BE9 (0x1bc bytes), align: 1
  Segment part 251.           Intra module refs:   U0Deel
           ENTRY                   ADDRESS         REF BY
           =====                   =======         ======
           SmsRecDeel              6A2E 
               calls direct
               CSTACK = 00000000 ( 00000040 )
    -------------------------------------------------------------------------
<CODE> 1 (was CODE)
  Relative segment, address: 6BEA - 6BF3 (0xa bytes), align: 1
  Segment part 252.           Intra module refs:   SmsRecDeel
           LOCAL                   ADDRESS         
           =====                   =======         
           ?Subroutine49           6BEA 
    -------------------------------------------------------------------------
<CODE> 1 (was CODE)
  Relative segment, address: 6BF4 - 6C07 (0x14 bytes), align: 1
  Segment part 253.           Intra module refs:   SmsRecDeel
           LOCAL                   ADDRESS         
           =====                   =======         
           ?Subroutine35           6BF4 
    -------------------------------------------------------------------------
<CODE> 1 (was CODE)
  Relative segment, address: 6C08 - 6C61 (0x5a bytes), align: 1
  Segment part 256.           Intra module refs:   ?Subroutine58
                                                   U0Deel
           ENTRY                   ADDRESS         REF BY
           =====                   =======         ======
           GetGsmXh                6C08 
               calls direct
               CSTACK = 00000000 ( 00000004 )
    -------------------------------------------------------------------------
<CODE> 1 (was CODE)
  Relative segment, address: 6C62 - 6C79 (0x18 bytes), align: 1
  Segment part 257.
           ENTRY                   ADDRESS         REF BY
           =====                   =======         ======
           SmsKeyRead              6C62            LoggerExtInt (logger)
               calls direct
               CSTACK = 00000000 ( 00000004 )
    -------------------------------------------------------------------------
<CODE> 1 (was CODE)
  Relative segment, address: 6C7A - 6C8D (0x14 bytes), align: 1
  Segment part 258.
           ENTRY                   ADDRESS         REF BY
           =====                   =======         ======
           SmsKeySet               6C7A            KeyDecDeel (key)
                                                   LoggerConfigFirst (logger)
               calls direct
               CSTACK = 00000000 ( 00000004 )
    -------------------------------------------------------------------------
<CODE> 1 (was CODE)
  Relative segment, address: 6C8E - 6CA5 (0x18 bytes), align: 1
  Segment part 259.           Intra module refs:   SmsKeyOn
           ENTRY                   ADDRESS         REF BY
           =====                   =======         ======
           GsmToPowOn              6C8E            LoggerLoop (logger)
                                                   SetGprsInfo (uart_pc)
               calls direct
               CSTACK = 00000000 ( 00000002 )
    -------------------------------------------------------------------------
<CODE> 1 (was CODE)
  Relative segment, address: 6CA6 - 6CD7 (0x32 bytes), align: 1
  Segment part 260.
           ENTRY                   ADDRESS         REF BY
           =====                   =======         ======
           SmsKeyOn                6CA6            KeyDecDeel (key)
                                                   LoggerExtInt (logger)
               calls direct
               CSTACK = 00000000 ( 00000002 )
    -------------------------------------------------------------------------
<CODE> 1 (was CODE)
  Relative segment, address: 6CD8 - 6D75 (0x9e bytes), align: 1
  Segment part 261.
           ENTRY                   ADDRESS         REF BY
           =====                   =======         ======
           SmsKeyOff               6CD8            KeyDecDeel (key)
                                                   LoggerExtInt (logger)
               calls direct
               CSTACK = 00000000 ( 00000002 )
    -------------------------------------------------------------------------
<CODE> 1 (was CODE)
  Relative segment, address: 6D76 - 6D7F (0xa bytes), align: 1
  Segment part 262.           Intra module refs:   GsmToPowOff
                                                   SmsKeyOff
                                                   SmsSendOk
           LOCAL                   ADDRESS         
           =====                   =======         
           ?Subroutine7            6D76 
    -------------------------------------------------------------------------
<CODE> 1 (was CODE)
  Relative segment, address: 6D80 - 6EB9 (0x13a bytes), align: 1
  Segment part 263.           Intra module refs:   U0PduAnalyze
           ENTRY                   ADDRESS         REF BY
           =====                   =======         ======
           decode                  6D80 
               CSTACK = 00000000 ( 00000010 )
    -------------------------------------------------------------------------
<CODE> 1 (was CODE)
  Relative segment, address: 6EBA - 6F21 (0x68 bytes), align: 1
  Segment part 264.           Intra module refs:   ?Subroutine21
           ENTRY                   ADDRESS         REF BY
           =====                   =======         ======
           hex_2_ascii             6EBA 
               CSTACK = 00000000 ( 0000001C )
    -------------------------------------------------------------------------
<CODE> 1 (was CODE)
  Relative segment, address: 6F22 - 6FA3 (0x82 bytes), align: 1
  Segment part 265.           Intra module refs:   U0PduAnalyze
           ENTRY                   ADDRESS         REF BY
           =====                   =======         ======
           ascii_2_hex             6F22 
               CSTACK = 00000000 ( 00000008 )
    -------------------------------------------------------------------------
<CODE> 1 (was CODE)
  Relative segment, address: 6FA4 - 70F3 (0x150 bytes), align: 1
  Segment part 267.           Intra module refs:   U0Deel
           ENTRY                   ADDRESS         REF BY
           =====                   =======         ======
           U0PduAnalyze            6FA4 
               calls direct and indirect
               CSTACK = 00000000 ( 00000014 )
    -------------------------------------------------------------------------
<CODE> 1 (was CODE)
  Relative segment, address: 70F4 - 7105 (0x12 bytes), align: 1
  Segment part 268.           Intra module refs:   U0PduAnalyze
           LOCAL                   ADDRESS         
           =====                   =======         
           ?Subroutine14           70F4 
    -------------------------------------------------------------------------
<CODE> 1 (was CODE)
  Relative segment, address: 7106 - 713F (0x3a bytes), align: 1
  Segment part 269.           Intra module refs:   U0SmsPdu
           ENTRY                   ADDRESS         REF BY
           =====                   =======         ======
           GetInternationalPhone   7106 
               CSTACK = 00000000 ( 00000006 )
    -------------------------------------------------------------------------
<CODE> 1 (was CODE)
  Relative segment, address: 7140 - 71F9 (0xba bytes), align: 1
  Segment part 270.           Intra module refs:   U0Deel
           ENTRY                   ADDRESS         REF BY
           =====                   =======         ======
           U0SmsPdu                7140 
               calls direct and indirect
               CSTACK = 00000000 ( 00000022 )
    -------------------------------------------------------------------------
<CODE> 1 (was CODE)
  Relative segment, address: 71FA - 7209 (0x10 bytes), align: 1
  Segment part 271.           Intra module refs:   U0SmsPdu
           LOCAL                   ADDRESS         
           =====                   =======         
           ?Subroutine21           71FA 
    -------------------------------------------------------------------------
<CODE> 1 (was CODE)
  Relative segment, address: 720A - 723D (0x34 bytes), align: 1
  Segment part 272.           Intra module refs:   SmsDeel
           ENTRY                   ADDRESS         REF BY
           =====                   =======         ======
           U0SmsLen                720A 
               calls direct
               CSTACK = 00000000 ( 00000004 )
    -------------------------------------------------------------------------
<CODE> 1 (was CODE)
  Relative segment, address: 723E - 7255 (0x18 bytes), align: 1
  Segment part 273.           Intra module refs:   U0SmsLen
           LOCAL                   ADDRESS         
           =====                   =======         
           ?Subroutine12           723E 
    -------------------------------------------------------------------------
<CODE> 1 (was CODE)
  Relative segment, address: 7256 - 7261 (0xc bytes), align: 1
  Segment part 275.           Intra module refs:   U0SmsLen
           LOCAL                   ADDRESS         
           =====                   =======         
           ?Subroutine13           7256 
    -------------------------------------------------------------------------
<CODE> 1 (was CODE)
  Relative segment, address: 7262 - 7267 (0x6 bytes), align: 1
  Segment part 283.           Intra module refs:   GetInternationalPhone
                                                   GetPowUni
           LOCAL                   ADDRESS         
           =====                   =======         
           ?Subroutine2            7262 
    -------------------------------------------------------------------------
<CODE> 1 (was CODE)
  Relative segment, address: 7268 - 7271 (0xa bytes), align: 1
  Segment part 284.           Intra module refs:   GetInternationalPhone
           LOCAL                   ADDRESS         
           =====                   =======         
           ?Subroutine55           7268 
    -------------------------------------------------------------------------
<CODE> 1 (was CODE)
  Relative segment, address: 7272 - 7285 (0x14 bytes), align: 1
  Segment part 288.           Intra module refs:   SmsKeyOff
           LOCAL                   ADDRESS         
           =====                   =======         
           ?Subroutine50           7272 
    -------------------------------------------------------------------------
<CODE> 1 (was CODE)
  Relative segment, address: 7286 - 72C1 (0x3c bytes), align: 1
  Segment part 289.           Intra module refs:   ?Subroutine0
                                                   U0Deel
           ENTRY                   ADDRESS         REF BY
           =====                   =======         ======
           PhoneIsRight            7286 
               CSTACK = 00000000 ( 00000002 )
    -------------------------------------------------------------------------
<CODE> 1 (was CODE)
  Relative segment, address: 72C2 - 72DB (0x1a bytes), align: 1
  Segment part 290.           Intra module refs:   SmsSendOk
           ENTRY                   ADDRESS         REF BY
           =====                   =======         ======
           SmsPowOneOk             72C2 
               calls direct
               CSTACK = 00000000 ( 00000002 )
    -------------------------------------------------------------------------
<CODE> 1 (was CODE)
  Relative segment, address: 72DC - 72E7 (0xc bytes), align: 1
  Segment part 291.           Intra module refs:   SmsSendOk
           ENTRY                   ADDRESS         REF BY
           =====                   =======         ======
           SmsAlarmOneOk           72DC 
               CSTACK = 00000000 ( 00000002 )
    -------------------------------------------------------------------------
<CODE> 1 (was CODE)
  Relative segment, address: 72E8 - 730F (0x28 bytes), align: 1
  Segment part 292.           Intra module refs:   U0Deel
           ENTRY                   ADDRESS         REF BY
           =====                   =======         ======
           SmsSendOk               72E8 
               calls direct
               CSTACK = 00000000 ( 00000002 )
    -------------------------------------------------------------------------
<CODE> 1 (was CODE)
  Relative segment, address: 7310 - 76BB (0x3ac bytes), align: 1
  Segment part 293.
           ENTRY                   ADDRESS         REF BY
           =====                   =======         ======
           U0Deel                  7310            main (main)
               calls direct
               CSTACK = 00000000 ( 00000012 )
    -------------------------------------------------------------------------
<CODE> 1 (was CODE)
  Relative segment, address: 76BC - 76CD (0x12 bytes), align: 1
  Segment part 294.           Intra module refs:   U0Deel
           LOCAL                   ADDRESS         
           =====                   =======         
           ?Subroutine58           76BC 
    -------------------------------------------------------------------------
<CODE> 1 (was CODE)
  Relative segment, address: 76CE - 76D1 (0x4 bytes), align: 1
  Segment part 295.           Intra module refs:   U0Deel
           LOCAL                   ADDRESS         
           =====                   =======         
           ?Subroutine48           76CE 
    -------------------------------------------------------------------------
<CODE> 1 (was CODE)
  Relative segment, address: 76D2 - 76DB (0xa bytes), align: 1
  Segment part 296.           Intra module refs:   ?Subroutine48
                                                   U0Deel
    -------------------------------------------------------------------------
<CODE> 1 (was CODE)
  Relative segment, address: 76DC - 76E1 (0x6 bytes), align: 1
  Segment part 297.           Intra module refs:   U0Deel
           LOCAL                   ADDRESS         
           =====                   =======         
           ?Subroutine30           76DC 
    -------------------------------------------------------------------------
<CODE> 1 (was CODE)
  Relative segment, address: 76E2 - 76EB (0xa bytes), align: 1
  Segment part 298.           Intra module refs:   ?Subroutine30
                                                   U0Deel
    -------------------------------------------------------------------------
<CODE> 1 (was CODE)
  Relative segment, address: 76EC - 76ED (0x2 bytes), align: 1
  Segment part 299.           Intra module refs:   CsqDeel
                                                   Gprs_SF_Deel
                                                   Gprs_SF_Recv_Do
                                                   U0Deel
           LOCAL                   ADDRESS         
           =====                   =======         
           ?Subroutine24           76EC 
    -------------------------------------------------------------------------
<CODE> 1 (was CODE)
  Relative segment, address: 76EE - 76F5 (0x8 bytes), align: 1
  Segment part 300.           Intra module refs:   ?Subroutine24
                                                   ?Subroutine25
           LOCAL                   ADDRESS         
           =====                   =======         
           ?Subroutine68           76EE 
    -------------------------------------------------------------------------
<CODE> 1 (was CODE)
  Relative segment, address: 76F6 - 76FD (0x8 bytes), align: 1
  Segment part 301.           Intra module refs:   GsmIsFree
                                                   SmsDeel
                                                   U0Deel
           LOCAL                   ADDRESS         
           =====                   =======         
           ?Subroutine23           76F6 
    -------------------------------------------------------------------------
<CODE> 1 (was CODE)
  Relative segment, address: 76FE - 770B (0xe bytes), align: 1
  Segment part 302.           Intra module refs:   U0Deel
           LOCAL                   ADDRESS         
           =====                   =======         
           ?Subroutine17           76FE 
    -------------------------------------------------------------------------
<CODE> 1 (was CODE)
  Relative segment, address: 770C - 7715 (0xa bytes), align: 1
  Segment part 303.           Intra module refs:   ?Subroutine17
                                                   U0Deel
           LOCAL                   ADDRESS         
           =====                   =======         
           ?Subroutine62           770C 
    -------------------------------------------------------------------------
<CODE> 1 (was CODE)
  Relative segment, address: 7716 - 7723 (0xe bytes), align: 1
  Segment part 304.           Intra module refs:   DogClear
                                                   U0Deel
           LOCAL                   ADDRESS         
           =====                   =======         
           ?Subroutine6            7716 
    -------------------------------------------------------------------------
<CODE> 1 (was CODE)
  Relative segment, address: 7724 - 77CF (0xac bytes), align: 1
  Segment part 306.           Intra module refs:   GsmLoop
           ENTRY                   ADDRESS         REF BY
           =====                   =======         ======
           DogDeel                 7724 
               calls direct
               CSTACK = 00000000 ( 00000002 )
    -------------------------------------------------------------------------
<CODE> 1 (was CODE)
  Relative segment, address: 77D0 - 77E3 (0x14 bytes), align: 1
  Segment part 308.           Intra module refs:   GsmFireDeel
                                                   GsmInitDeel
                                                   PowInDeel
           ENTRY                   ADDRESS         REF BY
           =====                   =======         ======
           GsmReTime               77D0 
               CSTACK = 00000000 ( 00000002 )
    -------------------------------------------------------------------------
<CODE> 1 (was CODE)
  Relative segment, address: 77E4 - 7925 (0x142 bytes), align: 1
  Segment part 309.           Intra module refs:   GsmLoop
           ENTRY                   ADDRESS         REF BY
           =====                   =======         ======
           GsmInitDeel             77E4 
               calls direct
               CSTACK = 00000000 ( 00000004 )
    -------------------------------------------------------------------------
<CODE> 1 (was CODE)
  Relative segment, address: 7926 - 793B (0x16 bytes), align: 1
  Segment part 310.
           ENTRY                   ADDRESS         REF BY
           =====                   =======         ======
           PrintDueOutToEE         7926            LoggerConfigFirst (logger)
                                                   PCBSQ_RecOne (logger)
                                                   PrintDueout_Clr (print)
               calls direct
               CSTACK = 00000000 ( 00000004 )
    -------------------------------------------------------------------------
<CODE> 1 (was CODE)
  Relative segment, address: 793C - 7945 (0xa bytes), align: 1
  Segment part 311.           Intra module refs:   Gprs_SF_XLH_ToEE
                                                   PrintDueOutToEE
                                                   SmsKeySet
           LOCAL                   ADDRESS         
           =====                   =======         
           ?Subroutine1            793C 
    -------------------------------------------------------------------------
<CODE> 1 (was CODE)
  Relative segment, address: 7946 - 795D (0x18 bytes), align: 1
  Segment part 312.
           ENTRY                   ADDRESS         REF BY
           =====                   =======         ======
           PrintDueOutFromEE       7946            LoggerExtInt (logger)
               calls direct
               CSTACK = 00000000 ( 00000004 )
    -------------------------------------------------------------------------
<CODE> 1 (was CODE)
  Relative segment, address: 795E - 796F (0x12 bytes), align: 1
  Segment part 313.           Intra module refs:   Gprs_SF_XLH_FromEE
                                                   PrintDueOutFromEE
           LOCAL                   ADDRESS         
           =====                   =======         
           ?Subroutine11           795E 
    -------------------------------------------------------------------------
<CODE> 1 (was CODE)
  Relative segment, address: 7970 - 7991 (0x22 bytes), align: 1
  Segment part 315.
           ENTRY                   ADDRESS         REF BY
           =====                   =======         ======
           GprsSleepFromEE         7970            ?Subroutine18 (uart_pc)
                                                   LoggerExtInt (logger)
               calls direct
               CSTACK = 00000000 ( 00000004 )
    -------------------------------------------------------------------------
<CODE> 1 (was CODE)
  Relative segment, address: 7992 - 79BD (0x2c bytes), align: 1
  Segment part 316.
           ENTRY                   ADDRESS         REF BY
           =====                   =======         ======
           Gprs_UpTime_FromEE      7992            ?Subroutine18 (uart_pc)
                                                   LoggerExtInt (logger)
               calls direct
               CSTACK = 00000000 ( 00000004 )
    -------------------------------------------------------------------------
<CODE> 1 (was CODE)
  Relative segment, address: 79BE - 7A3F (0x82 bytes), align: 1
  Segment part 317.
           ENTRY                   ADDRESS         REF BY
           =====                   =======         ======
           Gprs_PrtCAP_FromEE      79BE            ?Subroutine18 (uart_pc)
                                                   LoggerExtInt (logger)
               calls direct
               CSTACK = 00000000 ( 0000000C )
    -------------------------------------------------------------------------
<CODE> 1 (was CODE)
  Relative segment, address: 7A40 - 7A9B (0x5c bytes), align: 1
  Segment part 322.           Intra module refs:   GsmLoop
           ENTRY                   ADDRESS         REF BY
           =====                   =======         ======
           SmsDeel                 7A40 
               calls direct
               CSTACK = 00000000 ( 00000002 )
    -------------------------------------------------------------------------
<CODE> 1 (was CODE)
  Relative segment, address: 7A9C - 7AA9 (0xe bytes), align: 1
  Segment part 323.           Intra module refs:   SmsAlarmDeel
           ENTRY                   ADDRESS         REF BY
           =====                   =======         ======
           SmsAlarmReady           7A9C 
               calls direct
               CSTACK = 00000000 ( 00000004 )
    -------------------------------------------------------------------------
<CODE> 1 (was CODE)
  Relative segment, address: 7AAA - 7ADB (0x32 bytes), align: 1
  Segment part 324.           Intra module refs:   GsmLoop
           ENTRY                   ADDRESS         REF BY
           =====                   =======         ======
           SmsAlarmDeel            7AAA 
               calls direct
               CSTACK = 00000000 ( 00000002 )
    -------------------------------------------------------------------------
<CODE> 1 (was CODE)
  Relative segment, address: 7ADC - 7B29 (0x4e bytes), align: 1
  Segment part 325.           Intra module refs:   GsmLoop
           ENTRY                   ADDRESS         REF BY
           =====                   =======         ======
           CsqDeel                 7ADC 
               calls direct
               CSTACK = 00000000 ( 00000002 )
    -------------------------------------------------------------------------
<CODE> 1 (was CODE)
  Relative segment, address: 7B2A - 7B2F (0x6 bytes), align: 1
  Segment part 326.
           ENTRY                   ADDRESS         REF BY
           =====                   =======         ======
           SmsAlarmEnd             7B2A            LoggerAlarmDeel (logger)
               CSTACK = 00000000 ( 00000002 )
    -------------------------------------------------------------------------
<CODE> 1 (was CODE)
  Relative segment, address: 7B30 - 7B71 (0x42 bytes), align: 1
  Segment part 327.
           ENTRY                   ADDRESS         REF BY
           =====                   =======         ======
           SmsAlarmStart           7B30            LoggerAlarmDeel (logger)
               calls direct
               CSTACK = 00000000 ( 00000002 )
    -------------------------------------------------------------------------
<CODE> 1 (was CODE)
  Relative segment, address: 7B72 - 7C95 (0x124 bytes), align: 1
  Segment part 328.           Intra module refs:   GsmLoop
           ENTRY                   ADDRESS         REF BY
           =====                   =======         ======
           GsmFireDeel             7B72 
               calls direct
               CSTACK = 00000000 ( 00000002 )
    -------------------------------------------------------------------------
<CODE> 1 (was CODE)
  Relative segment, address: 7C96 - 7CA3 (0xe bytes), align: 1
  Segment part 329.           Intra module refs:   GsmFireDeel
                                                   GsmToPowOn
           LOCAL                   ADDRESS         
           =====                   =======         
           ?Subroutine53           7C96 
    -------------------------------------------------------------------------
<CODE> 1 (was CODE)
  Relative segment, address: 7CA4 - 7CAB (0x8 bytes), align: 1
  Segment part 331.           Intra module refs:   EnUniToAsc
                                                   GetNumFromStr
                                                   GetPosC
                                                   Gprs_SF_Deel
                                                   SmsRecDeel
                                                   U0SmsPdu
                                                   ascii_2_hex
                                                   decode
                                                   hex_2_ascii
           LOCAL                   ADDRESS         
           =====                   =======         
           ?Subroutine9            7CA4 
    -------------------------------------------------------------------------
<CODE> 1 (was CODE)
  Relative segment, address: 7CAC - 7CB7 (0xc bytes), align: 1
  Segment part 344.           Intra module refs:   SmsAlarmReady
           LOCAL                   ADDRESS         
           =====                   =======         
           ?Subroutine27           7CAC 
    -------------------------------------------------------------------------
<CODE> 1 (was CODE)
  Relative segment, address: 7CB8 - 7CF7 (0x40 bytes), align: 1
  Segment part 347.           Intra module refs:   SmsPowReady
           ENTRY                   ADDRESS         REF BY
           =====                   =======         ======
           GetPowUni               7CB8 
               calls direct
               CSTACK = 00000000 ( 00000006 )
    -------------------------------------------------------------------------
<CODE> 1 (was CODE)
  Relative segment, address: 7CF8 - 7D11 (0x1a bytes), align: 1
  Segment part 356.           Intra module refs:   SmsPowDeel
           ENTRY                   ADDRESS         REF BY
           =====                   =======         ======
           SmsPowReady             7CF8 
               calls direct
               CSTACK = 00000000 ( 00000004 )
    -------------------------------------------------------------------------
<CODE> 1 (was CODE)
  Relative segment, address: 7D12 - 7D27 (0x16 bytes), align: 1
  Segment part 357.           Intra module refs:   SmsAlarmReady
                                                   SmsPowReady
           LOCAL                   ADDRESS         
           =====                   =======         
           ?Subroutine0            7D12 
    -------------------------------------------------------------------------
<CODE> 1 (was CODE)
  Relative segment, address: 7D28 - 7D3F (0x18 bytes), align: 1
  Segment part 358.           Intra module refs:   PowInDeel
           ENTRY                   ADDRESS         REF BY
           =====                   =======         ======
           SmsPowStart             7D28 
               calls direct
               CSTACK = 00000000 ( 00000002 )
    -------------------------------------------------------------------------
<CODE> 1 (was CODE)
  Relative segment, address: 7D40 - 7D4D (0xe bytes), align: 1
  Segment part 359.           Intra module refs:   SmsAlarmStart
                                                   SmsPowStart
           LOCAL                   ADDRESS         
           =====                   =======         
           ?Subroutine47           7D40 
    -------------------------------------------------------------------------
<CODE> 1 (was CODE)
  Relative segment, address: 7D4E - 7D5D (0x10 bytes), align: 1
  Segment part 363.           Intra module refs:   ?Subroutine27
                                                   SmsPowReady
           LOCAL                   ADDRESS         
           =====                   =======         
           ?Subroutine61           7D4E 
    -------------------------------------------------------------------------
<CODE> 1 (was CODE)
  Relative segment, address: 7D5E - 7D69 (0xc bytes), align: 1
  Segment part 364.           Intra module refs:   ?Subroutine61
                                                   U0Deel
           LOCAL                   ADDRESS         
           =====                   =======         
           ?Subroutine66           7D5E 
    -------------------------------------------------------------------------
<CODE> 1 (was CODE)
  Relative segment, address: 7D6A - 7D6F (0x6 bytes), align: 1
  Segment part 368.           Intra module refs:   SmsAlarmDeel
                                                   SmsDeel
                                                   SmsPowDeel
           LOCAL                   ADDRESS         
           =====                   =======         
           ?Subroutine25           7D6A 
    -------------------------------------------------------------------------
<CODE> 1 (was CODE)
  Relative segment, address: B7C4 - B829 (0x66 bytes), align: 1
  Segment part 373.           Intra module refs:   GsmLoop
           ENTRY                   ADDRESS         REF BY
           =====                   =======         ======
           PowInDeel               B7C4 
               calls direct
               CSTACK = 00000000 ( 00000002 )
    -------------------------------------------------------------------------
<CODE> 1 (was CODE)
  Relative segment, address: C594 - C5A5 (0x12 bytes), align: 1
  Segment part 374.           Intra module refs:   PowInDeel
           LOCAL                   ADDRESS         
           =====                   =======         
           ?Subroutine5            C594 
    -------------------------------------------------------------------------
<CODE> 1 (was CODE)
  Relative segment, address: C6C2 - C6CF (0xe bytes), align: 1
  Segment part 370.           Intra module refs:   SmsPowDeel
           LOCAL                   ADDRESS         
           =====                   =======         
           ?Subroutine45           C6C2 
    -------------------------------------------------------------------------
<CODE> 1 (was CODE)
  Relative segment, address: BDEE - BE2F (0x42 bytes), align: 1
  Segment part 372.           Intra module refs:   GsmLoop
           ENTRY                   ADDRESS         REF BY
           =====                   =======         ======
           SmsPowDeel              BDEE 
               calls direct
               CSTACK = 00000000 ( 00000002 )
    -------------------------------------------------------------------------
<CODE> 1 (was CODE)
  Relative segment, address: C764 - C76D (0xa bytes), align: 1
  Segment part 371.           Intra module refs:   SmsAlarmDeel
           LOCAL                   ADDRESS         
           =====                   =======         
           ?Subroutine22           C764 
    -------------------------------------------------------------------------
<CODE> 1 (was CODE)
  Relative segment, address: C34E - C369 (0x1c bytes), align: 1
  Segment part 215.           Intra module refs:   CsqDeel
                                                   Gprs_SF_Recv_Do
                                                   GsmInitDeel
           ENTRY                   ADDRESS         REF BY
           =====                   =======         ======
           U0Clear                 C34E 
               calls direct
               CSTACK = 00000000 ( 00000002 )
    -------------------------------------------------------------------------
<CODE> 1 (was CODE)
  Relative segment, address: C6FA - C705 (0xc bytes), align: 1
  Segment part 207.           Intra module refs:   DogDeel
                                                   Gprs_SF_Deel
                                                   GsmOnErrDeel
                                                   GsmToPowOn
                                                   U0Deel
           ENTRY                   ADDRESS         REF BY
           =====                   =======         ======
           ErrorToRst              C6FA 
               CSTACK = 00000000 ( 00000002 )
    -------------------------------------------------------------------------
<CODE> 1 (was CODE)
  Relative segment, address: C0C4 - C0F1 (0x2e bytes), align: 1
  Segment part 213.           Intra module refs:   ?Subroutine68
           ENTRY                   ADDRESS         REF BY
           =====                   =======         ======
           GsmIsFree               C0C4 
               CSTACK = 00000000 ( 00000002 )
    -------------------------------------------------------------------------
<CODE> 1 (was CODE)
  Relative segment, address: A0B8 - A23B (0x184 bytes), align: 1
  Segment part 212.           Intra module refs:   Gprs_SF_Deel
           ENTRY                   ADDRESS         REF BY
           =====                   =======         ======
           SendIpPortFromEE        A0B8 
               calls direct and indirect
               CSTACK = 00000000 ( 00000046 )
    -------------------------------------------------------------------------
<CODE> 1 (was CODE)
  Relative segment, address: C1CE - C1F7 (0x2a bytes), align: 1
  Segment part 209.           Intra module refs:   GsmFireDeel
                                                   GsmToPowOff
                                                   GsmToPowOn
           ENTRY                   ADDRESS         REF BY
           =====                   =======         ======
           DogClear                C1CE 
               CSTACK = 00000000 ( 00000002 )
    -------------------------------------------------------------------------
<CODE> 1 (was CODE)
  Relative segment, address: B940 - B997 (0x58 bytes), align: 1
  Segment part 210.           Intra module refs:   DogDeel
                                                   Gprs_SF_Deel
                                                   GsmLoop
                                                   GsmOnErrDeel
                                                   U0Deel
           ENTRY                   ADDRESS         REF BY
           =====                   =======         ======
           GsmToPowOff             B940 
               calls direct
               CSTACK = 00000000 ( 00000002 )
    -------------------------------------------------------------------------
<CODE> 1 (was CODE)
  Relative segment, address: C6D0 - C6DD (0xe bytes), align: 1
  Segment part 211.           Intra module refs:   GsmToPowOff
           LOCAL                   ADDRESS         
           =====                   =======         
           ?Subroutine8            C6D0 
    -------------------------------------------------------------------------
<CODE> 1 (was CODE)
  Relative segment, address: C5CA - C5DB (0x12 bytes), align: 1
  Segment part 220.           Intra module refs:   Gprs_Exit_Close_Deel
                                                   GsmFireDeel
           ENTRY                   ADDRESS         REF BY
           =====                   =======         ======
           SF_Exit_Tc_Clr          C5CA 
               CSTACK = 00000000 ( 00000002 )
    -------------------------------------------------------------------------
<CODE> 1 (was CODE)
  Relative segment, address: BA98 - BAE7 (0x50 bytes), align: 1
  Segment part 221.           Intra module refs:   GsmLoop
           ENTRY                   ADDRESS         REF BY
           =====                   =======         ======
           Gprs_Exit_Close_Deel    BA98 
               calls direct
               CSTACK = 00000000 ( 00000002 )
    -------------------------------------------------------------------------
<CODE> 1 (was CODE)
  Relative segment, address: AAD0 - ABCB (0xfc bytes), align: 1
  Segment part 216.           Intra module refs:   U0Deel
           ENTRY                   ADDRESS         REF BY
           =====                   =======         ======
           Gprs_SF_Recv_Do         AAD0 
               calls direct
               CSTACK = 00000000 ( 0000000A )
    -------------------------------------------------------------------------
<CODE> 1 (was CODE)
  Relative segment, address: C75A - C763 (0xa bytes), align: 1
  Segment part 217.           Intra module refs:   Gprs_SF_Recv_Do
           LOCAL                   ADDRESS         
           =====                   =======         
           ?Subroutine29           C75A 
    -------------------------------------------------------------------------
<CODE> 1 (was CODE)
  Relative segment, address: A9D0 - AACF (0x100 bytes), align: 1
  Segment part 214.           Intra module refs:   GsmLoop
           ENTRY                   ADDRESS         REF BY
           =====                   =======         ======
           Gprs_SF_Deel            A9D0 
               calls direct
               CSTACK = 00000000 ( 00000004 )
    -------------------------------------------------------------------------
DATA16_ID
  Relative segment, address: 44C0 - 44C1 (0x2 bytes), align: 1
  Segment part 122.           Intra module refs:   sServerCode
    -------------------------------------------------------------------------
DATA16_ID
  Relative segment, address: 44C2 - 44C3 (0x2 bytes), align: 1
  Segment part 130.           Intra module refs:   sCMGS
    -------------------------------------------------------------------------
DATA16_ID
  Relative segment, address: 44C4 - 44C5 (0x2 bytes), align: 1
  Segment part 136.           Intra module refs:   sOK
    -------------------------------------------------------------------------
DATA16_ID
  Relative segment, address: 44C6 - 44C7 (0x2 bytes), align: 1
  Segment part 138.           Intra module refs:   sCONNECT
    -------------------------------------------------------------------------
DATA16_ID
  Relative segment, address: 44C8 - 44C9 (0x2 bytes), align: 1
  Segment part 140.           Intra module refs:   sLN
    -------------------------------------------------------------------------
DATA16_ID
  Relative segment, address: 44CA - 44CB (0x2 bytes), align: 1
  Segment part 142.           Intra module refs:   s_0891
    -------------------------------------------------------------------------
DATA16_ID
  Relative segment, address: 44CC - 44CD (0x2 bytes), align: 1
  Segment part 150.           Intra module refs:   sERROR
    -------------------------------------------------------------------------
DATA16_ID
  Relative segment, address: 44CE - 44CF (0x2 bytes), align: 1
  Segment part 154.           Intra module refs:   sATCSQ
    -------------------------------------------------------------------------
DATA16_ID
  Relative segment, address: 44D0 - 44D1 (0x2 bytes), align: 1
  Segment part 176.           Intra module refs:   sMOBILE
    -------------------------------------------------------------------------
DATA16_ID
  Relative segment, address: 44D2 - 44D3 (0x2 bytes), align: 1
  Segment part 178.           Intra module refs:   sMobile
    -------------------------------------------------------------------------
DATA16_ID
  Relative segment, address: 44D4 - 44D5 (0x2 bytes), align: 1
  Segment part 192.           Intra module refs:   sCPIN_NOT
    -------------------------------------------------------------------------
DATA16_ID
  Relative segment, address: 44D6 - 44D7 (0x2 bytes), align: 1
  Segment part 196.           Intra module refs:   sALREADY
    -------------------------------------------------------------------------
DATA16_ID
  Relative segment, address: 44D8 - 44D9 (0x2 bytes), align: 1
  Segment part 198.           Intra module refs:   sFAIL

    *************************************************************************

  FILE NAME : E:\zz-cc\c0708\0708-141\Project\Debug\Obj\i2c_bh1750.r43
    *************************************************************************

  FILE NAME : E:\zz-cc\c0708\0708-141\Project\Debug\Obj\i2c_ee.r43
  PROGRAM MODULE, NAME : i2c_ee

  SEGMENTS IN THE MODULE
  ======================
DATA16_AN
  Relative segment, address: 0028 - 0028 (0x1 bytes), align: 0
  Segment part 1. ROOT.       Intra module refs:   HavePow (logger)
                                                   I2c2RecByte (i2c_rtc)
                                                   I2c2SendByte (i2c_rtc)
                                                   I2cRecByte
                                                   I2cSendByte
           ENTRY                   ADDRESS         REF BY
           =====                   =======         ======
           P2IN                    0028 
    -------------------------------------------------------------------------
<CODE> 1 (was CODE)
  Relative segment, address: 9F28 - 9F3B (0x14 bytes), align: 1
  Segment part 8.             Intra module refs:   ?Subroutine13
                                                   I2C_EE_BufferWrite
                                                   I2cSeekEE
           ENTRY                   ADDRESS         REF BY
           =====                   =======         ======
           I2cStop                 9F28 
               CSTACK = 00000000 ( 00000002 )
    -------------------------------------------------------------------------
<CODE> 1 (was CODE)
  Relative segment, address: 9F3C - 9F47 (0xc bytes), align: 1
  Segment part 9.             Intra module refs:   ?Subroutine4
                                                   I2cAck
                                                   I2cRecByte
                                                   I2cStart
                                                   I2cStop
           LOCAL                   ADDRESS         
           =====                   =======         
           ?Subroutine21           9F3C 
    -------------------------------------------------------------------------
<CODE> 1 (was CODE)
  Relative segment, address: 9F48 - 9F65 (0x1e bytes), align: 1
  Segment part 10.            Intra module refs:   I2C_EE_BufferRead
                                                   i2c_ee_read_to_pc
                                                   i2c_ee_read_to_u0
           ENTRY                   ADDRESS         REF BY
           =====                   =======         ======
           I2cAck                  9F48 
               CSTACK = 00000000 ( 00000002 )
    -------------------------------------------------------------------------
<CODE> 1 (was CODE)
  Relative segment, address: 9F66 - 9F79 (0x14 bytes), align: 1
  Segment part 11.            Intra module refs:   I2cAck
                                                   I2cSendByte
                                                   I2cStop
           LOCAL                   ADDRESS         
           =====                   =======         
           ?Subroutine1            9F66 
    -------------------------------------------------------------------------
<CODE> 1 (was CODE)
  Relative segment, address: 9F7A - 9FC3 (0x4a bytes), align: 1
  Segment part 12.            Intra module refs:   I2C_EE_BufferRead
                                                   i2c_ee_read_to_pc
                                                   i2c_ee_read_to_u0
           ENTRY                   ADDRESS         REF BY
           =====                   =======         ======
           I2cRecByte              9F7A 
               CSTACK = 00000000 ( 00000004 )
    -------------------------------------------------------------------------
<CODE> 1 (was CODE)
  Relative segment, address: 9FC4 - 9FC9 (0x6 bytes), align: 1
  Segment part 13.            Intra module refs:   I2cAck
                                                   I2cRecByte
           LOCAL                   ADDRESS         
           =====                   =======         
           ?Subroutine4            9FC4 
    -------------------------------------------------------------------------
<CODE> 1 (was CODE)
  Relative segment, address: 9FCA - A039 (0x70 bytes), align: 1
  Segment part 14.            Intra module refs:   ?Subroutine9
                                                   I2C_EE_BufferWrite
                                                   I2cSeekEE
           ENTRY                   ADDRESS         REF BY
           =====                   =======         ======
           I2cSendByte             9FCA 
               CSTACK = 00000000 ( 00000002 )
    -------------------------------------------------------------------------
<CODE> 1 (was CODE)
  Relative segment, address: A03A - A04D (0x14 bytes), align: 1
  Segment part 15.            Intra module refs:   ?Subroutine6
                                                   I2cAck
                                                   I2cSendByte
           LOCAL                   ADDRESS         
           =====                   =======         
           ?Subroutine14           A03A 
    -------------------------------------------------------------------------
<CODE> 1 (was CODE)
  Relative segment, address: A04E - A061 (0x14 bytes), align: 1
  Segment part 16.            Intra module refs:   ?Subroutine4
                                                   I2cSendByte
                                                   I2cStop
           LOCAL                   ADDRESS         
           =====                   =======         
           ?Subroutine16           A04E 
    -------------------------------------------------------------------------
<CODE> 1 (was CODE)
  Relative segment, address: A062 - A069 (0x8 bytes), align: 1
  Segment part 17.            Intra module refs:   I2cAck
                                                   I2cSendByte
           LOCAL                   ADDRESS         
           =====                   =======         
           ?Subroutine2            A062 
    -------------------------------------------------------------------------
<CODE> 1 (was CODE)
  Relative segment, address: A06A - A077 (0xe bytes), align: 1
  Segment part 18.            Intra module refs:   ?Subroutine2
                                                   I2cStop
           LOCAL                   ADDRESS         
           =====                   =======         
           ?Subroutine17           A06A 
    -------------------------------------------------------------------------
<CODE> 1 (was CODE)
  Relative segment, address: A078 - A08B (0x14 bytes), align: 1
  Segment part 19.            Intra module refs:   ?Subroutine2
                                                   I2cAck
                                                   I2cRecByte
                                                   I2cSendByte
                                                   I2cStart
           LOCAL                   ADDRESS         
           =====                   =======         
           ?Subroutine15           A078 
    -------------------------------------------------------------------------
<CODE> 1 (was CODE)
  Relative segment, address: A08C - A0B7 (0x2c bytes), align: 1
  Segment part 20.            Intra module refs:   ?Subroutine9
                                                   I2C_EE_BufferWrite
                                                   I2cSeekEE
           ENTRY                   ADDRESS         REF BY
           =====                   =======         ======
           I2cStart                A08C 
               CSTACK = 00000000 ( 00000002 )
    -------------------------------------------------------------------------
<CODE> 1 (was CODE)
  Relative segment, address: C6B4 - C6B7 (0x4 bytes), align: 1
  Segment part 21.            Intra module refs:   I2cStart
                                                   I2cStop
           LOCAL                   ADDRESS         
           =====                   =======         
           ?Subroutine6            C6B4 
    -------------------------------------------------------------------------
<CODE> 1 (was CODE)
  Relative segment, address: C6B8 - C6C1 (0xa bytes), align: 1
  Segment part 22.            Intra module refs:   ?Subroutine6
                                                   I2cStart
                                                   I2cStop
           LOCAL                   ADDRESS         
           =====                   =======         
           ?Subroutine18           C6B8 
    -------------------------------------------------------------------------
<CODE> 1 (was CODE)
  Relative segment, address: B176 - B17D (0x8 bytes), align: 1
  Segment part 25.            Intra module refs:   I2C_EE_BufferRead
                                                   I2C_EE_BufferWrite
           LOCAL                   ADDRESS         
           =====                   =======         
           ?Subroutine12           B176 
    -------------------------------------------------------------------------
<CODE> 1 (was CODE)
  Relative segment, address: B17E - B185 (0x8 bytes), align: 1
  Segment part 26.            Intra module refs:   ?Subroutine12
                                                   Segment part 32
           LOCAL                   ADDRESS         
           =====                   =======         
           ?Subroutine22           B17E 
    -------------------------------------------------------------------------
<CODE> 1 (was CODE)
  Relative segment, address: B186 - B19F (0x1a bytes), align: 1
  Segment part 27.            Intra module refs:   I2C_EE_BufferRead
                                                   I2C_EE_BufferWrite
                                                   I2cSeekEE
                                                   Segment part 34
           LOCAL                   ADDRESS         
           =====                   =======         
           ?Subroutine19           B186 
    -------------------------------------------------------------------------
<CODE> 1 (was CODE)
  Relative segment, address: B1A0 - B1DD (0x3e bytes), align: 1
  Segment part 28.
           ENTRY                   ADDRESS         REF BY
           =====                   =======         ======
           I2cSeekEE               B1A0            LoggerInit (logger)
               calls direct
               CSTACK = 00000000 ( 00000006 )
    -------------------------------------------------------------------------
<CODE> 1 (was CODE)
  Relative segment, address: B1DE - B21F (0x42 bytes), align: 1
  Segment part 30.
           ENTRY                   ADDRESS         REF BY
           =====                   =======         ======
           i2c_ee_read_to_u0       B1DE            Segment part 147 (logger)
               calls direct
               CSTACK = 00000000 ( 0000000C )
    -------------------------------------------------------------------------
<CODE> 1 (was CODE)
  Relative segment, address: B220 - B223 (0x4 bytes), align: 1
  Segment part 31.            Intra module refs:   I2C_EE_BufferRead
                                                   i2c_ee_read_to_pc
                                                   i2c_ee_read_to_u0
           LOCAL                   ADDRESS         
           =====                   =======         
           ?Subroutine13           B220 
    -------------------------------------------------------------------------
<CODE> 1 (was CODE)
  Relative segment, address: B224 - B227 (0x4 bytes), align: 1
  Segment part 32.            Intra module refs:   ?Subroutine13
                                                   I2C_EE_BufferWrite
    -------------------------------------------------------------------------
<CODE> 1 (was CODE)
  Relative segment, address: B228 - B2CF (0xa8 bytes), align: 1
  Segment part 24.
           ENTRY                   ADDRESS         REF BY
           =====                   =======         ======
           I2C_EE_BufferWrite      B228            ?Subroutine1 (gsm)
                                                   ?Subroutine1 (logger)
                                                   ?Subroutine15 (uart_pc)
                                                   LoggerConfigFirst (logger)
                                                   PCBSQ_CapToEE (logger)
                                                   PCBSQ_RecNumPt_ToEE (logger)
                                                   PCBSQ_RecOne (logger)
                                                   PCBSQ_RecTime_ToEE (logger)
                                                   ServerCmdSet (logger)
                                                   SetModelSerialNum (uart_pc)
                                                   SetPhoneToEE (logger)
                                                   SetReStart (uart_pc)
                                                   SetStateB (uart_pc)
                                                   StateA1ToEE (logger)
                                                   StateA2ToEE (logger)
                                                   StateBToEE (logger)
               calls direct and indirect
               CSTACK = 00000000 ( 0000000E )
    -------------------------------------------------------------------------
<CODE> 1 (was CODE)
  Relative segment, address: C74E - C759 (0xc bytes), align: 1
  Segment part 37.            Intra module refs:   ?Subroutine9
                                                   I2C_EE_BufferWrite
           LOCAL                   ADDRESS         
           =====                   =======         
           ?Subroutine20           C74E 
    -------------------------------------------------------------------------
<CODE> 1 (was CODE)
  Relative segment, address: BC56 - BC9B (0x46 bytes), align: 1
  Segment part 23.
           ENTRY                   ADDRESS         REF BY
           =====                   =======         ======
           I2C_EE_BufferRead       BC56            ?Subroutine11 (gsm)
                                                   ?Subroutine12 (logger)
                                                   EEToStateA1 (logger)
                                                   EEToStateA2 (logger)
                                                   EEToStateB (logger)
                                                   EE_Read_One (logger)
                                                   GetPhoneHaoFromEE (logger)
                                                   GetPhoneNumFromEE (logger)
                                                   GetSmsTitleUni (logger)
                                                   GprsDueOutFromEE (logger)
                                                   GprsSleepFromEE (gsm)
                                                   Gprs_PrtCAP_FromEE (gsm)
                                                   Gprs_UpTime_FromEE (gsm)
                                                   ReadPhone (uart_pc)
                                                   SendIpPortFromEE (gsm)
                                                   ServerCmdSet (logger)
                                                   SmsKeyRead (gsm)
               calls direct
               CSTACK = 00000000 ( 0000000C )
    -------------------------------------------------------------------------
<CODE> 1 (was CODE)
  Relative segment, address: C26C - C28F (0x24 bytes), align: 1
  Segment part 36.            Intra module refs:   I2C_EE_BufferRead
                                                   i2c_ee_read_to_pc
                                                   i2c_ee_read_to_u0
           LOCAL                   ADDRESS         
           =====                   =======         
           ?Subroutine9            C26C 
    -------------------------------------------------------------------------
<CODE> 1 (was CODE)
  Relative segment, address: C426 - C433 (0xe bytes), align: 1
  Segment part 33.            Intra module refs:   i2c_ee_read_to_pc
                                                   i2c_ee_read_to_u0
           LOCAL                   ADDRESS         
           =====                   =======         
           ?Subroutine10           C426 
    -------------------------------------------------------------------------
<CODE> 1 (was CODE)
  Relative segment, address: C434 - C43D (0xa bytes), align: 1
  Segment part 34.            Intra module refs:   ?Subroutine10
    -------------------------------------------------------------------------
<CODE> 1 (was CODE)
  Relative segment, address: BDAC - BDED (0x42 bytes), align: 1
  Segment part 38.
           ENTRY                   ADDRESS         REF BY
           =====                   =======         ======
           i2c_ee_read_to_pc       BDAC            ?Subroutine3 (print)
                                                   ?Subroutine4 (print)
                                                   ReadGprsInfo (uart_pc)
                                                   ReadLink (uart_pc)
                                                   ReadSmsTitle (uart_pc)
               calls direct
               CSTACK = 00000000 ( 0000000C )

    *************************************************************************

  FILE NAME : E:\zz-cc\c0708\0708-141\Project\Debug\Obj\i2c_htu.r43
    *************************************************************************

  FILE NAME : E:\zz-cc\c0708\0708-141\Project\Debug\Obj\i2c_rtc.r43
  PROGRAM MODULE, NAME : i2c_rtc

  SEGMENTS IN THE MODULE
  ======================
<CODE> 1 (was CODE)
  Relative segment, address: A23C - A24F (0x14 bytes), align: 1
  Segment part 8.             Intra module refs:   RtcInit
                                                   RtcReadTime
                                                   RtcSetTime
           ENTRY                   ADDRESS         REF BY
           =====                   =======         ======
           I2c2Stop                A23C 
               CSTACK = 00000000 ( 00000002 )
    -------------------------------------------------------------------------
<CODE> 1 (was CODE)
  Relative segment, address: A250 - A259 (0xa bytes), align: 1
  Segment part 9.             Intra module refs:   ?Subroutine4
                                                   I2c2Ack
                                                   I2c2RecByte
                                                   I2c2Start
                                                   I2c2Stop
           LOCAL                   ADDRESS         
           =====                   =======         
           ?Subroutine15           A250 
    -------------------------------------------------------------------------
<CODE> 1 (was CODE)
  Relative segment, address: A25A - A277 (0x1e bytes), align: 1
  Segment part 10.            Intra module refs:   RtcReadTime
           ENTRY                   ADDRESS         REF BY
           =====                   =======         ======
           I2c2Ack                 A25A 
               CSTACK = 00000000 ( 00000002 )
    -------------------------------------------------------------------------
<CODE> 1 (was CODE)
  Relative segment, address: A278 - A28B (0x14 bytes), align: 1
  Segment part 11.            Intra module refs:   I2c2Ack
                                                   I2c2SendByte
                                                   I2c2Stop
           LOCAL                   ADDRESS         
           =====                   =======         
           ?Subroutine1            A278 
    -------------------------------------------------------------------------
<CODE> 1 (was CODE)
  Relative segment, address: A28C - A2D5 (0x4a bytes), align: 1
  Segment part 12.            Intra module refs:   RtcReadTime
           ENTRY                   ADDRESS         REF BY
           =====                   =======         ======
           I2c2RecByte             A28C 
               CSTACK = 00000000 ( 00000004 )
    -------------------------------------------------------------------------
<CODE> 1 (was CODE)
  Relative segment, address: A2D6 - A2DB (0x6 bytes), align: 1
  Segment part 13.            Intra module refs:   I2c2Ack
                                                   I2c2RecByte
           LOCAL                   ADDRESS         
           =====                   =======         
           ?Subroutine4            A2D6 
    -------------------------------------------------------------------------
<CODE> 1 (was CODE)
  Relative segment, address: A2DC - A349 (0x6e bytes), align: 1
  Segment part 14.            Intra module refs:   ?Subroutine10
                                                   RtcInit
                                                   RtcReadTime
                                                   RtcSetTime
           ENTRY                   ADDRESS         REF BY
           =====                   =======         ======
           I2c2SendByte            A2DC 
               CSTACK = 00000000 ( 00000002 )
    -------------------------------------------------------------------------
<CODE> 1 (was CODE)
  Relative segment, address: A34A - A35D (0x14 bytes), align: 1
  Segment part 15.            Intra module refs:   ?Subroutine3
                                                   I2c2Ack
                                                   I2c2SendByte
           LOCAL                   ADDRESS         
           =====                   =======         
           ?Subroutine11           A34A 
    -------------------------------------------------------------------------
<CODE> 1 (was CODE)
  Relative segment, address: A35E - A36B (0xe bytes), align: 1
  Segment part 16.            Intra module refs:   ?Subroutine4
                                                   I2c2SendByte
                                                   I2c2Stop
           LOCAL                   ADDRESS         
           =====                   =======         
           ?Subroutine14           A35E 
    -------------------------------------------------------------------------
<CODE> 1 (was CODE)
  Relative segment, address: A36C - A36F (0x4 bytes), align: 1
  Segment part 17.            Intra module refs:   I2c2Ack
                                                   I2c2SendByte
           LOCAL                   ADDRESS         
           =====                   =======         
           ?Subroutine2            A36C 
    -------------------------------------------------------------------------
<CODE> 1 (was CODE)
  Relative segment, address: A370 - A37D (0xe bytes), align: 1
  Segment part 18.            Intra module refs:   ?Subroutine2
                                                   I2c2Ack
                                                   I2c2RecByte
                                                   I2c2SendByte
                                                   I2c2Start
    -------------------------------------------------------------------------
<CODE> 1 (was CODE)
  Relative segment, address: A37E - A38B (0xe bytes), align: 1
  Segment part 19.            Intra module refs:   ?Subroutine2
                                                   I2c2Stop
           LOCAL                   ADDRESS         
           =====                   =======         
           ?Subroutine13           A37E 
    -------------------------------------------------------------------------
<CODE> 1 (was CODE)
  Relative segment, address: A38C - A3B7 (0x2c bytes), align: 1
  Segment part 20.            Intra module refs:   ?Subroutine10
                                                   RtcReadTime
                                                   RtcSetTime
           ENTRY                   ADDRESS         REF BY
           =====                   =======         ======
           I2c2Start               A38C 
               CSTACK = 00000000 ( 00000002 )
    -------------------------------------------------------------------------
<CODE> 1 (was CODE)
  Relative segment, address: C5DC - C5DF (0x4 bytes), align: 1
  Segment part 21.            Intra module refs:   I2c2Start
                                                   I2c2Stop
           LOCAL                   ADDRESS         
           =====                   =======         
           ?Subroutine3            C5DC 
    -------------------------------------------------------------------------
<CODE> 1 (was CODE)
  Relative segment, address: C5E0 - C5EB (0xc bytes), align: 1
  Segment part 22.            Intra module refs:   ?Subroutine3
                                                   I2c2Start
                                                   I2c2Stop
           LOCAL                   ADDRESS         
           =====                   =======         
           ?Subroutine12           C5E0 
    -------------------------------------------------------------------------
<CODE> 1 (was CODE)
  Relative segment, address: C4EC - C4FF (0x14 bytes), align: 1
  Segment part 25.            Intra module refs:   RtcSetTime
           ENTRY                   ADDRESS         REF BY
           =====                   =======         ======
           RtcInit                 C4EC 
               calls direct
               CSTACK = 00000000 ( 00000002 )
    -------------------------------------------------------------------------
<CODE> 1 (was CODE)
  Relative segment, address: C71E - C729 (0xc bytes), align: 1
  Segment part 26.            Intra module refs:   RtcInit
                                                   RtcReadTime
           LOCAL                   ADDRESS         
           =====                   =======         
           ?Subroutine10           C71E 
    -------------------------------------------------------------------------
<CODE> 1 (was CODE)
  Relative segment, address: BBC8 - BC0F (0x48 bytes), align: 1
  Segment part 27.
           ENTRY                   ADDRESS         REF BY
           =====                   =======         ======
           RtcSetTime              BBC8            ?Subroutine14 (uart_pc)
                                                   ?Subroutine9 (logger)
                                                   rtcFromCTDstr (gsm)
               calls direct
               CSTACK = 00000000 ( 00000004 )
    -------------------------------------------------------------------------
<CODE> 1 (was CODE)
  Relative segment, address: B66C - B6E5 (0x7a bytes), align: 1
  Segment part 23.            Intra module refs:   ReadRtcD10
           ENTRY                   ADDRESS         REF BY
           =====                   =======         ======
           RtcReadTime             B66C 
               calls direct
               CSTACK = 00000000 ( 00000006 )
    -------------------------------------------------------------------------
<CODE> 1 (was CODE)
  Relative segment, address: C77C - C781 (0x6 bytes), align: 1
  Segment part 24.            Intra module refs:   RtcReadTime
           LOCAL                   ADDRESS         
           =====                   =======         
           ?Subroutine9            C77C 
    -------------------------------------------------------------------------
<CODE> 1 (was CODE)
  Relative segment, address: C246 - C26B (0x26 bytes), align: 1
  Segment part 30.
           ENTRY                   ADDRESS         REF BY
           =====                   =======         ======
           ReadRtcD10              C246            ?Subroutine2 (key)
                                                   ?Subroutine41 (logger)
                                                   ?Subroutine5 (gsm)
                                                   LcdRtcTime (lcd)
                                                   SetReStart (uart_pc)
               calls direct
               CSTACK = 00000000 ( 00000002 )

    *************************************************************************

  FILE NAME : E:\zz-cc\c0708\0708-141\Project\Debug\Obj\i2c_shr1000.r43
    *************************************************************************

  FILE NAME : E:\zz-cc\c0708\0708-141\Project\Debug\Obj\it.r43
  PROGRAM MODULE, NAME : it

  SEGMENTS IN THE MODULE
  ======================
DATA16_AN
  Relative segment, address: 0003 - 0003 (0x1 bytes), align: 0
  Segment part 1. ROOT.       Intra module refs:   U0SendByte (main)
                                                   USCI0RX_ISR
           ENTRY                   ADDRESS         REF BY
           =====                   =======         ======
           IFG2                    0003 
    -------------------------------------------------------------------------
DATA16_AN
  Relative segment, address: 0007 - 0007 (0x1 bytes), align: 0
  Segment part 2. ROOT.       Intra module refs:   U1SendByte (main)
                                                   USCI1RX_ISR
           ENTRY                   ADDRESS         REF BY
           =====                   =======         ======
           UC1IFG                  0007 
    -------------------------------------------------------------------------
DATA16_AN
  Relative segment, address: 0140 - 0141 (0x2 bytes), align: 0
  Segment part 5. ROOT.       Intra module refs:   ADC12ISR
           ENTRY                   ADDRESS         REF BY
           =====                   =======         ======
           ADC12MEM0               0140 
    -------------------------------------------------------------------------
DATA16_AN
  Relative segment, address: 0142 - 0143 (0x2 bytes), align: 0
  Segment part 6. ROOT.       Intra module refs:   ADC12ISR
           ENTRY                   ADDRESS         REF BY
           =====                   =======         ======
           ADC12MEM1               0142 
    -------------------------------------------------------------------------
DATA16_AN
  Relative segment, address: 0144 - 0145 (0x2 bytes), align: 0
  Segment part 7. ROOT.       Intra module refs:   ADC12ISR
           ENTRY                   ADDRESS         REF BY
           =====                   =======         ======
           ADC12MEM2               0144 
    -------------------------------------------------------------------------
DATA16_AN
  Relative segment, address: 0146 - 0147 (0x2 bytes), align: 0
  Segment part 8. ROOT.       Intra module refs:   ADC12ISR
           ENTRY                   ADDRESS         REF BY
           =====                   =======         ======
           ADC12MEM3               0146 
    -------------------------------------------------------------------------
DATA16_AN
  Relative segment, address: 0148 - 0149 (0x2 bytes), align: 0
  Segment part 9. ROOT.       Intra module refs:   ADC12ISR
           ENTRY                   ADDRESS         REF BY
           =====                   =======         ======
           ADC12MEM4               0148 
    -------------------------------------------------------------------------
DATA16_AN
  Relative segment, address: 014A - 014B (0x2 bytes), align: 0
  Segment part 10. ROOT.      Intra module refs:   ADC12ISR
           ENTRY                   ADDRESS         REF BY
           =====                   =======         ======
           ADC12MEM5               014A 
    -------------------------------------------------------------------------
DATA16_AN
  Relative segment, address: 014C - 014D (0x2 bytes), align: 0
  Segment part 11. ROOT.      Intra module refs:   ADC12ISR
           ENTRY                   ADDRESS         REF BY
           =====                   =======         ======
           ADC12MEM6               014C 
    -------------------------------------------------------------------------
DATA16_AN
  Relative segment, address: 014E - 014F (0x2 bytes), align: 0
  Segment part 12. ROOT.      Intra module refs:   ADC12ISR
           ENTRY                   ADDRESS         REF BY
           =====                   =======         ======
           ADC12MEM7               014E 
    -------------------------------------------------------------------------
DATA16_AN
  Relative segment, address: 0023 - 0023 (0x1 bytes), align: 0
  Segment part 13. ROOT.      Intra module refs:   KeyIntSet (key)
                                                   KeyIsrDo (key)
                                                   KeyPortInit (key)
                                                   port1_isr
           ENTRY                   ADDRESS         REF BY
           =====                   =======         ======
           P1IFG                   0023 
    -------------------------------------------------------------------------
DATA16_AN
  Relative segment, address: 002B - 002B (0x1 bytes), align: 0
  Segment part 14. ROOT.      Intra module refs:   port2_isr
           ENTRY                   ADDRESS         REF BY
           =====                   =======         ======
           P2IFG                   002B 
    -------------------------------------------------------------------------
DATA16_AN
  Relative segment, address: 012E - 012F (0x2 bytes), align: 0
  Segment part 19. ROOT.      Intra module refs:   Timer_A
           ENTRY                   ADDRESS         REF BY
           =====                   =======         ======
           TAIV                    012E 
    -------------------------------------------------------------------------
DATA16_AN
  Relative segment, address: 0160 - 0161 (0x2 bytes), align: 0
  Segment part 20. ROOT.      Intra module refs:   USCI0RX_ISR
                                                   USCI1RX_ISR
           ENTRY                   ADDRESS         REF BY
           =====                   =======         ======
           TACTL                   0160 
    -------------------------------------------------------------------------
DATA16_AN
  Relative segment, address: 0166 - 0167 (0x2 bytes), align: 0
  Segment part 22. ROOT.      Intra module refs:   U1_RecErr (main)
                                                   USCI1RX_ISR
           ENTRY                   ADDRESS         REF BY
           =====                   =======         ======
           TACCTL2                 0166 
    -------------------------------------------------------------------------
DATA16_AN
  Relative segment, address: 0170 - 0171 (0x2 bytes), align: 0
  Segment part 23. ROOT.      Intra module refs:   USCI0RX_ISR
                                                   USCI1RX_ISR
           ENTRY                   ADDRESS         REF BY
           =====                   =======         ======
           TAR                     0170 
    -------------------------------------------------------------------------
DATA16_AN
  Relative segment, address: 0174 - 0175 (0x2 bytes), align: 0
  Segment part 24. ROOT.      Intra module refs:   USCI0RX_ISR
           ENTRY                   ADDRESS         REF BY
           =====                   =======         ======
           TACCR1                  0174 
    -------------------------------------------------------------------------
DATA16_AN
  Relative segment, address: 0176 - 0177 (0x2 bytes), align: 0
  Segment part 25. ROOT.      Intra module refs:   USCI1RX_ISR
           ENTRY                   ADDRESS         REF BY
           =====                   =======         ======
           TACCR2                  0176 
    -------------------------------------------------------------------------
DATA16_AN
  Relative segment, address: 011E - 011F (0x2 bytes), align: 0
  Segment part 26. ROOT.      Intra module refs:   Timer_B
           ENTRY                   ADDRESS         REF BY
           =====                   =======         ======
           TBIV                    011E 
    -------------------------------------------------------------------------
DATA16_AN
  Relative segment, address: 0182 - 0183 (0x2 bytes), align: 0
  Segment part 27. ROOT.      Intra module refs:   LoggerSample (logger)
                                                   timerb0_isr
           ENTRY                   ADDRESS         REF BY
           =====                   =======         ======
           TBCCTL0                 0182 
    -------------------------------------------------------------------------
DATA16_AN
  Relative segment, address: 018A - 018B (0x2 bytes), align: 0
  Segment part 28. ROOT.      Intra module refs:   Timer_B
           ENTRY                   ADDRESS         REF BY
           =====                   =======         ======
           TBCCTL4                 018A 
    -------------------------------------------------------------------------
DATA16_AN
  Relative segment, address: 0194 - 0195 (0x2 bytes), align: 0
  Segment part 29. ROOT.      Intra module refs:   LoggerInit (logger)
                                                   Timer_B
                                                   main (main)
           ENTRY                   ADDRESS         REF BY
           =====                   =======         ======
           TBCCR1                  0194 
    -------------------------------------------------------------------------
DATA16_AN
  Relative segment, address: 0198 - 0199 (0x2 bytes), align: 0
  Segment part 30. ROOT.      Intra module refs:   Timer_B
                                                   main (main)
           ENTRY                   ADDRESS         REF BY
           =====                   =======         ======
           TBCCR3                  0198 
    -------------------------------------------------------------------------
DATA16_AN
  Relative segment, address: 019C - 019D (0x2 bytes), align: 0
  Segment part 31. ROOT.      Intra module refs:   LoggerExtInt (logger)
                                                   Timer_B
           ENTRY                   ADDRESS         REF BY
           =====                   =======         ======
           TBCCR5                  019C 
    -------------------------------------------------------------------------
DATA16_AN
  Relative segment, address: 0066 - 0066 (0x1 bytes), align: 0
  Segment part 32. ROOT.      Intra module refs:   USCI0RX_ISR
           ENTRY                   ADDRESS         REF BY
           =====                   =======         ======
           UCA0RXBUF               0066 
    -------------------------------------------------------------------------
DATA16_AN
  Relative segment, address: 00D6 - 00D6 (0x1 bytes), align: 0
  Segment part 33. ROOT.      Intra module refs:   USCI1RX_ISR
           ENTRY                   ADDRESS         REF BY
           =====                   =======         ======
           UCA1RXBUF               00D6 
    -------------------------------------------------------------------------
<CODE> 1 (was CODE)
  Relative segment, address: BB7E - BBC7 (0x4a bytes), align: 1
  Segment part 97.            Intra module refs:   USCI0RX_ISR::??INTVEC 46
           ENTRY                   ADDRESS         REF BY
           =====                   =======         ======
           USCI0RX_ISR             BB7E 
               interrupt function
               CSTACK = 00000000 ( 00000006 )
    -------------------------------------------------------------------------
<CODE> 1 (was CODE)
  Relative segment, address: 96CC - 96DD (0x12 bytes), align: 1
  Segment part 86.            Intra module refs:   port1_isr::??INTVEC 36
           ENTRY                   ADDRESS         REF BY
           =====                   =======         ======
           port1_isr               96CC 
               interrupt function
               calls direct
               CSTACK = 00000000 ( 0000000C )
    -------------------------------------------------------------------------
<CODE> 1 (was CODE)
  Relative segment, address: 96DE - 96DF (0x2 bytes), align: 1
  Segment part 87.            Intra module refs:   comaratora__isr::??INTVEC 54
           ENTRY                   ADDRESS         REF BY
           =====                   =======         ======
           comaratora__isr         96DE 
               interrupt function
               CSTACK = 00000000 ( 00000004 )
    -------------------------------------------------------------------------
<CODE> 1 (was CODE)
  Relative segment, address: 96E0 - 96E1 (0x2 bytes), align: 1
  Segment part 88.            Intra module refs:   timera0_isr::??INTVEC 50
           ENTRY                   ADDRESS         REF BY
           =====                   =======         ======
           timera0_isr             96E0 
               interrupt function
               CSTACK = 00000000 ( 00000004 )
    -------------------------------------------------------------------------
<CODE> 1 (was CODE)
  Relative segment, address: 96E2 - 96E3 (0x2 bytes), align: 1
  Segment part 89.            Intra module refs:   wdt_isr::??INTVEC 52
           ENTRY                   ADDRESS         REF BY
           =====                   =======         ======
           wdt_isr                 96E2 
               interrupt function
               CSTACK = 00000000 ( 00000004 )
    -------------------------------------------------------------------------
<CODE> 1 (was CODE)
  Relative segment, address: 96E4 - 96E5 (0x2 bytes), align: 1
  Segment part 90.            Intra module refs:   nmi_::??INTVEC 60
           ENTRY                   ADDRESS         REF BY
           =====                   =======         ======
           nmi_                    96E4 
               interrupt function
               CSTACK = 00000000 ( 00000004 )
    -------------------------------------------------------------------------
<CODE> 1 (was CODE)
  Relative segment, address: 96E6 - 9821 (0x13c bytes), align: 1
  Segment part 91.            Intra module refs:   ADC12ISR::??INTVEC 42
           ENTRY                   ADDRESS         REF BY
           =====                   =======         ======
           ADC12ISR                96E6 
               interrupt function
               calls direct
               CSTACK = 00000000 ( 00000012 )
    -------------------------------------------------------------------------
<CODE> 1 (was CODE)
  Relative segment, address: 9822 - 987F (0x5e bytes), align: 1
  Segment part 92.            Intra module refs:   Timer_B::??INTVEC 56
           ENTRY                   ADDRESS         REF BY
           =====                   =======         ======
           Timer_B                 9822 
               interrupt function
               calls direct
               CSTACK = 00000000 ( 0000000C )
    -------------------------------------------------------------------------
<CODE> 1 (was CODE)
  Relative segment, address: 9880 - 988D (0xe bytes), align: 1
  Segment part 93.            Intra module refs:   timerb0_isr::??INTVEC 58
           ENTRY                   ADDRESS         REF BY
           =====                   =======         ======
           timerb0_isr             9880 
               interrupt function
               CSTACK = 00000000 ( 00000004 )
    -------------------------------------------------------------------------
<CODE> 1 (was CODE)
  Relative segment, address: 988E - 98C3 (0x36 bytes), align: 1
  Segment part 94.            Intra module refs:   Timer_A::??INTVEC 48
           ENTRY                   ADDRESS         REF BY
           =====                   =======         ======
           Timer_A                 988E 
               interrupt function
               calls direct
               CSTACK = 00000000 ( 0000000C )
    -------------------------------------------------------------------------
<CODE> 1 (was CODE)
  Relative segment, address: 98C4 - 98CD (0xa bytes), align: 1
  Segment part 95.            Intra module refs:   Timer_A
                                                   Timer_B
                                                   USCI1RX_ISR
                                                   port1_isr
           LOCAL                   ADDRESS         
           =====                   =======         
           ?Subroutine0            98C4 
    -------------------------------------------------------------------------
<CODE> 1 (was CODE)
  Relative segment, address: 98CE - 99CF (0x102 bytes), align: 1
  Segment part 96.            Intra module refs:   USCI1RX_ISR::??INTVEC 34
           ENTRY                   ADDRESS         REF BY
           =====                   =======         ======
           USCI1RX_ISR             98CE 
               interrupt function
               calls direct
               CSTACK = 00000000 ( 0000000C )
    -------------------------------------------------------------------------
<CODE> 1 (was CODE)
  Relative segment, address: C782 - C787 (0x6 bytes), align: 1
  Segment part 85.            Intra module refs:   port2_isr::??INTVEC 38
           ENTRY                   ADDRESS         REF BY
           =====                   =======         ======
           port2_isr               C782 
               interrupt function
               CSTACK = 00000000 ( 00000004 )
    -------------------------------------------------------------------------
<CODE> 1 (was CODE)
  Relative segment, address: C7BC - C7BD (0x2 bytes), align: 1
  Segment part 84.            Intra module refs:   usciab0tx_isr::??INTVEC 44
           ENTRY                   ADDRESS         REF BY
           =====                   =======         ======
           usciab0tx_isr           C7BC 
               interrupt function
               CSTACK = 00000000 ( 00000004 )
    -------------------------------------------------------------------------
<CODE> 1 (was CODE)
  Relative segment, address: C7BE - C7BF (0x2 bytes), align: 1
  Segment part 83.            Intra module refs:   usciab1tx_isr::??INTVEC 32
           ENTRY                   ADDRESS         REF BY
           =====                   =======         ======
           usciab1tx_isr           C7BE 
               interrupt function
               CSTACK = 00000000 ( 00000004 )
    -------------------------------------------------------------------------
<CODE> 1 (was CODE)
  Relative segment, address: C7BA - C7BB (0x2 bytes), align: 1
  Segment part 82.            Intra module refs:   resered20_isr::??INTVEC 40
           ENTRY                   ADDRESS         REF BY
           =====                   =======         ======
           resered20_isr           C7BA 
               interrupt function
               CSTACK = 00000000 ( 00000004 )
    -------------------------------------------------------------------------
<CODE> 1 (was CODE)
  Relative segment, address: C7B8 - C7B9 (0x2 bytes), align: 1
  Segment part 81.            Intra module refs:   reserved0_isr::??INTVEC 0
           ENTRY                   ADDRESS         REF BY
           =====                   =======         ======
           reserved0_isr           C7B8 
               interrupt function
               CSTACK = 00000000 ( 00000004 )
    -------------------------------------------------------------------------
<CODE> 1 (was CODE)
  Relative segment, address: C7B6 - C7B7 (0x2 bytes), align: 1
  Segment part 80.            Intra module refs:   reserved1_isr::??INTVEC 2
           ENTRY                   ADDRESS         REF BY
           =====                   =======         ======
           reserved1_isr           C7B6 
               interrupt function
               CSTACK = 00000000 ( 00000004 )
    -------------------------------------------------------------------------
<CODE> 1 (was CODE)
  Relative segment, address: C7B4 - C7B5 (0x2 bytes), align: 1
  Segment part 79.            Intra module refs:   reserved2_isr::??INTVEC 4
           ENTRY                   ADDRESS         REF BY
           =====                   =======         ======
           reserved2_isr           C7B4 
               interrupt function
               CSTACK = 00000000 ( 00000004 )
    -------------------------------------------------------------------------
<CODE> 1 (was CODE)
  Relative segment, address: C7B2 - C7B3 (0x2 bytes), align: 1
  Segment part 78.            Intra module refs:   reserved3_isr::??INTVEC 6
           ENTRY                   ADDRESS         REF BY
           =====                   =======         ======
           reserved3_isr           C7B2 
               interrupt function
               CSTACK = 00000000 ( 00000004 )
    -------------------------------------------------------------------------
<CODE> 1 (was CODE)
  Relative segment, address: C7A8 - C7A9 (0x2 bytes), align: 1
  Segment part 77.            Intra module refs:   reserved4_isr::??INTVEC 8
           ENTRY                   ADDRESS         REF BY
           =====                   =======         ======
           reserved4_isr           C7A8 
               interrupt function
               CSTACK = 00000000 ( 00000004 )
    -------------------------------------------------------------------------
<CODE> 1 (was CODE)
  Relative segment, address: C7A6 - C7A7 (0x2 bytes), align: 1
  Segment part 76.            Intra module refs:   reserved5_isr::??INTVEC 10
           ENTRY                   ADDRESS         REF BY
           =====                   =======         ======
           reserved5_isr           C7A6 
               interrupt function
               CSTACK = 00000000 ( 00000004 )
    -------------------------------------------------------------------------
<CODE> 1 (was CODE)
  Relative segment, address: C7A2 - C7A3 (0x2 bytes), align: 1
  Segment part 75.            Intra module refs:   reserved6_isr::??INTVEC 12
           ENTRY                   ADDRESS         REF BY
           =====                   =======         ======
           reserved6_isr           C7A2 
               interrupt function
               CSTACK = 00000000 ( 00000004 )
    -------------------------------------------------------------------------
<CODE> 1 (was CODE)
  Relative segment, address: C7A0 - C7A1 (0x2 bytes), align: 1
  Segment part 74.            Intra module refs:   reserved7_isr::??INTVEC 14
           ENTRY                   ADDRESS         REF BY
           =====                   =======         ======
           reserved7_isr           C7A0 
               interrupt function
               CSTACK = 00000000 ( 00000004 )
    -------------------------------------------------------------------------
<CODE> 1 (was CODE)
  Relative segment, address: C79A - C79B (0x2 bytes), align: 1
  Segment part 73.            Intra module refs:   reserved8_isr::??INTVEC 16
           ENTRY                   ADDRESS         REF BY
           =====                   =======         ======
           reserved8_isr           C79A 
               interrupt function
               CSTACK = 00000000 ( 00000004 )
    -------------------------------------------------------------------------
<CODE> 1 (was CODE)
  Relative segment, address: C798 - C799 (0x2 bytes), align: 1
  Segment part 72.            Intra module refs:   reserved9_isr::??INTVEC 18
           ENTRY                   ADDRESS         REF BY
           =====                   =======         ======
           reserved9_isr           C798 
               interrupt function
               CSTACK = 00000000 ( 00000004 )
    -------------------------------------------------------------------------
<CODE> 1 (was CODE)
  Relative segment, address: C79C - C79D (0x2 bytes), align: 1
  Segment part 71.            Intra module refs:   reserved10_isr::??INTVEC 20
           ENTRY                   ADDRESS         REF BY
           =====                   =======         ======
           reserved10_isr          C79C 
               interrupt function
               CSTACK = 00000000 ( 00000004 )
    -------------------------------------------------------------------------
<CODE> 1 (was CODE)
  Relative segment, address: C79E - C79F (0x2 bytes), align: 1
  Segment part 70.            Intra module refs:   reserved11_isr::??INTVEC 22
           ENTRY                   ADDRESS         REF BY
           =====                   =======         ======
           reserved11_isr          C79E 
               interrupt function
               CSTACK = 00000000 ( 00000004 )
    -------------------------------------------------------------------------
<CODE> 1 (was CODE)
  Relative segment, address: C7A4 - C7A5 (0x2 bytes), align: 1
  Segment part 69.            Intra module refs:   reserved12_isr::??INTVEC 24
           ENTRY                   ADDRESS         REF BY
           =====                   =======         ======
           reserved12_isr          C7A4 
               interrupt function
               CSTACK = 00000000 ( 00000004 )
    -------------------------------------------------------------------------
<CODE> 1 (was CODE)
  Relative segment, address: C7AC - C7AD (0x2 bytes), align: 1
  Segment part 68.            Intra module refs:   reserved13_isr::??INTVEC 26
           ENTRY                   ADDRESS         REF BY
           =====                   =======         ======
           reserved13_isr          C7AC 
               interrupt function
               CSTACK = 00000000 ( 00000004 )
    -------------------------------------------------------------------------
<CODE> 1 (was CODE)
  Relative segment, address: C7AE - C7AF (0x2 bytes), align: 1
  Segment part 67.            Intra module refs:   reserved14_isr::??INTVEC 28
           ENTRY                   ADDRESS         REF BY
           =====                   =======         ======
           reserved14_isr          C7AE 
               interrupt function
               CSTACK = 00000000 ( 00000004 )
    -------------------------------------------------------------------------
<CODE> 1 (was CODE)
  Relative segment, address: C7B0 - C7B1 (0x2 bytes), align: 1
  Segment part 66.            Intra module refs:   reserved15_isr::??INTVEC 30
           ENTRY                   ADDRESS         REF BY
           =====                   =======         ======
           reserved15_isr          C7B0 
               interrupt function
               CSTACK = 00000000 ( 00000004 )
    -------------------------------------------------------------------------
INTVEC
  Common segment, address: F9C0 - F9C1 (0x2 bytes), align: 1
  Segment part 34. ROOT.
           ENTRY                   ADDRESS         REF BY
           =====                   =======         ======
           reserved0_isr::??INTVEC 0
                                   F9C0 
    -------------------------------------------------------------------------
INTVEC
  Common segment, address: F9C0 - F9C3 (0x4 bytes), align: 1
  Segment part 35. ROOT.
           ENTRY                   ADDRESS         REF BY
           =====                   =======         ======
           reserved1_isr::??INTVEC 2
                                   F9C2 
    -------------------------------------------------------------------------
INTVEC
  Common segment, address: F9C0 - F9C5 (0x6 bytes), align: 1
  Segment part 36. ROOT.
           ENTRY                   ADDRESS         REF BY
           =====                   =======         ======
           reserved2_isr::??INTVEC 4
                                   F9C4 
    -------------------------------------------------------------------------
INTVEC
  Common segment, address: F9C0 - F9C7 (0x8 bytes), align: 1
  Segment part 37. ROOT.
           ENTRY                   ADDRESS         REF BY
           =====                   =======         ======
           reserved3_isr::??INTVEC 6
                                   F9C6 
    -------------------------------------------------------------------------
INTVEC
  Common segment, address: F9C0 - F9C9 (0xa bytes), align: 1
  Segment part 38. ROOT.
           ENTRY                   ADDRESS         REF BY
           =====                   =======         ======
           reserved4_isr::??INTVEC 8
                                   F9C8 
    -------------------------------------------------------------------------
INTVEC
  Common segment, address: F9C0 - F9CB (0xc bytes), align: 1
  Segment part 39. ROOT.
           ENTRY                   ADDRESS         REF BY
           =====                   =======         ======
           reserved5_isr::??INTVEC 10
                                   F9CA 
    -------------------------------------------------------------------------
INTVEC
  Common segment, address: F9C0 - F9CD (0xe bytes), align: 1
  Segment part 40. ROOT.
           ENTRY                   ADDRESS         REF BY
           =====                   =======         ======
           reserved6_isr::??INTVEC 12
                                   F9CC 
    -------------------------------------------------------------------------
INTVEC
  Common segment, address: F9C0 - F9CF (0x10 bytes), align: 1
  Segment part 41. ROOT.
           ENTRY                   ADDRESS         REF BY
           =====                   =======         ======
           reserved7_isr::??INTVEC 14
                                   F9CE 
    -------------------------------------------------------------------------
INTVEC
  Common segment, address: F9C0 - F9D1 (0x12 bytes), align: 1
  Segment part 42. ROOT.
           ENTRY                   ADDRESS         REF BY
           =====                   =======         ======
           reserved8_isr::??INTVEC 16
                                   F9D0 
    -------------------------------------------------------------------------
INTVEC
  Common segment, address: F9C0 - F9D3 (0x14 bytes), align: 1
  Segment part 43. ROOT.
           ENTRY                   ADDRESS         REF BY
           =====                   =======         ======
           reserved9_isr::??INTVEC 18
                                   F9D2 
    -------------------------------------------------------------------------
INTVEC
  Common segment, address: F9C0 - F9D5 (0x16 bytes), align: 1
  Segment part 44. ROOT.
           ENTRY                   ADDRESS         REF BY
           =====                   =======         ======
           reserved10_isr::??INTVEC 20
                                   F9D4 
    -------------------------------------------------------------------------
INTVEC
  Common segment, address: F9C0 - F9D7 (0x18 bytes), align: 1
  Segment part 45. ROOT.
           ENTRY                   ADDRESS         REF BY
           =====                   =======         ======
           reserved11_isr::??INTVEC 22
                                   F9D6 
    -------------------------------------------------------------------------
INTVEC
  Common segment, address: F9C0 - F9D9 (0x1a bytes), align: 1
  Segment part 46. ROOT.
           ENTRY                   ADDRESS         REF BY
           =====                   =======         ======
           reserved12_isr::??INTVEC 24
                                   F9D8 
    -------------------------------------------------------------------------
INTVEC
  Common segment, address: F9C0 - F9DB (0x1c bytes), align: 1
  Segment part 47. ROOT.
           ENTRY                   ADDRESS         REF BY
           =====                   =======         ======
           reserved13_isr::??INTVEC 26
                                   F9DA 
    -------------------------------------------------------------------------
INTVEC
  Common segment, address: F9C0 - F9DD (0x1e bytes), align: 1
  Segment part 48. ROOT.
           ENTRY                   ADDRESS         REF BY
           =====                   =======         ======
           reserved14_isr::??INTVEC 28
                                   F9DC 
    -------------------------------------------------------------------------
INTVEC
  Common segment, address: F9C0 - F9DF (0x20 bytes), align: 1
  Segment part 49. ROOT.
           ENTRY                   ADDRESS         REF BY
           =====                   =======         ======
           reserved15_isr::??INTVEC 30
                                   F9DE 
    -------------------------------------------------------------------------
INTVEC
  Common segment, address: F9C0 - F9E1 (0x22 bytes), align: 1
  Segment part 50. ROOT.
           ENTRY                   ADDRESS         REF BY
           =====                   =======         ======
           usciab1tx_isr::??INTVEC 32
                                   F9E0 
    -------------------------------------------------------------------------
INTVEC
  Common segment, address: F9C0 - F9E3 (0x24 bytes), align: 1
  Segment part 51. ROOT.
           ENTRY                   ADDRESS         REF BY
           =====                   =======         ======
           USCI1RX_ISR::??INTVEC 34
                                   F9E2 
    -------------------------------------------------------------------------
INTVEC
  Common segment, address: F9C0 - F9E5 (0x26 bytes), align: 1
  Segment part 52. ROOT.
           ENTRY                   ADDRESS         REF BY
           =====                   =======         ======
           port1_isr::??INTVEC 36
                                   F9E4 
    -------------------------------------------------------------------------
INTVEC
  Common segment, address: F9C0 - F9E7 (0x28 bytes), align: 1
  Segment part 53. ROOT.
           ENTRY                   ADDRESS         REF BY
           =====                   =======         ======
           port2_isr::??INTVEC 38
                                   F9E6 
    -------------------------------------------------------------------------
INTVEC
  Common segment, address: F9C0 - F9E9 (0x2a bytes), align: 1
  Segment part 54. ROOT.
           ENTRY                   ADDRESS         REF BY
           =====                   =======         ======
           resered20_isr::??INTVEC 40
                                   F9E8 
    -------------------------------------------------------------------------
INTVEC
  Common segment, address: F9C0 - F9EB (0x2c bytes), align: 1
  Segment part 55. ROOT.
           ENTRY                   ADDRESS         REF BY
           =====                   =======         ======
           ADC12ISR::??INTVEC 42   F9EA 
    -------------------------------------------------------------------------
INTVEC
  Common segment, address: F9C0 - F9ED (0x2e bytes), align: 1
  Segment part 56. ROOT.
           ENTRY                   ADDRESS         REF BY
           =====                   =======         ======
           usciab0tx_isr::??INTVEC 44
                                   F9EC 
    -------------------------------------------------------------------------
INTVEC
  Common segment, address: F9C0 - F9EF (0x30 bytes), align: 1
  Segment part 57. ROOT.
           ENTRY                   ADDRESS         REF BY
           =====                   =======         ======
           USCI0RX_ISR::??INTVEC 46
                                   F9EE 
    -------------------------------------------------------------------------
INTVEC
  Common segment, address: F9C0 - F9F1 (0x32 bytes), align: 1
  Segment part 58. ROOT.
           ENTRY                   ADDRESS         REF BY
           =====                   =======         ======
           Timer_A::??INTVEC 48    F9F0 
    -------------------------------------------------------------------------
INTVEC
  Common segment, address: F9C0 - F9F3 (0x34 bytes), align: 1
  Segment part 59. ROOT.
           ENTRY                   ADDRESS         REF BY
           =====                   =======         ======
           timera0_isr::??INTVEC 50
                                   F9F2 
    -------------------------------------------------------------------------
INTVEC
  Common segment, address: F9C0 - F9F5 (0x36 bytes), align: 1
  Segment part 60. ROOT.
           ENTRY                   ADDRESS         REF BY
           =====                   =======         ======
           wdt_isr::??INTVEC 52    F9F4 
    -------------------------------------------------------------------------
INTVEC
  Common segment, address: F9C0 - F9F7 (0x38 bytes), align: 1
  Segment part 61. ROOT.
           ENTRY                   ADDRESS         REF BY
           =====                   =======         ======
           comaratora__isr::??INTVEC 54
                                   F9F6 
    -------------------------------------------------------------------------
INTVEC
  Common segment, address: F9C0 - F9F9 (0x3a bytes), align: 1
  Segment part 62. ROOT.
           ENTRY                   ADDRESS         REF BY
           =====                   =======         ======
           Timer_B::??INTVEC 56    F9F8 
    -------------------------------------------------------------------------
INTVEC
  Common segment, address: F9C0 - F9FB (0x3c bytes), align: 1
  Segment part 63. ROOT.
           ENTRY                   ADDRESS         REF BY
           =====                   =======         ======
           timerb0_isr::??INTVEC 58
                                   F9FA 
    -------------------------------------------------------------------------
INTVEC
  Common segment, address: F9C0 - F9FD (0x3e bytes), align: 1
  Segment part 64. ROOT.
           ENTRY                   ADDRESS         REF BY
           =====                   =======         ======
           nmi_::??INTVEC 60       F9FC 

    *************************************************************************

  FILE NAME : E:\zz-cc\c0708\0708-141\Project\Debug\Obj\key.r43
  PROGRAM MODULE, NAME : key

  SEGMENTS IN THE MODULE
  ======================
DATA16_AN
  Relative segment, address: 0020 - 0020 (0x1 bytes), align: 0
  Segment part 1. ROOT.       Intra module refs:   KeyDecDeel
                                                   KeyIsrDo
                                                   KeyXiaoDou
           ENTRY                   ADDRESS         REF BY
           =====                   =======         ======
           P1IN                    0020 
    -------------------------------------------------------------------------
DATA16_AN
  Relative segment, address: 0024 - 0024 (0x1 bytes), align: 0
  Segment part 5. ROOT.       Intra module refs:   KeyIntSet
                                                   KeyPortInit
           ENTRY                   ADDRESS         REF BY
           =====                   =======         ======
           P1IES                   0024 
    -------------------------------------------------------------------------
DATA16_AN
  Relative segment, address: 0025 - 0025 (0x1 bytes), align: 0
  Segment part 6. ROOT.       Intra module refs:   KeyIntClr
                                                   KeyIntSet
                                                   KeyPortInit
           ENTRY                   ADDRESS         REF BY
           =====                   =======         ======
           P1IE                    0025 
    -------------------------------------------------------------------------
DATA16_AN
  Relative segment, address: 0026 - 0026 (0x1 bytes), align: 0
  Segment part 7. ROOT.       Intra module refs:   KeyIntSet
                                                   KeyPortInit
                                                   McuInit (main)
           ENTRY                   ADDRESS         REF BY
           =====                   =======         ======
           P1SEL                   0026 
    -------------------------------------------------------------------------
DATA16_AN
  Relative segment, address: 0180 - 0181 (0x2 bytes), align: 0
  Segment part 9. ROOT.       Intra module refs:   KeyIsrDo
                                                   LoggerExtInt (logger)
                                                   LoggerInit (logger)
                                                   main (main)
           ENTRY                   ADDRESS         REF BY
           =====                   =======         ======
           TBCTL                   0180 
    -------------------------------------------------------------------------
DATA16_AN
  Relative segment, address: 0186 - 0187 (0x2 bytes), align: 0
  Segment part 10. ROOT.      Intra module refs:   KeyIsrDo
                                                   KeyXiaoDou
           ENTRY                   ADDRESS         REF BY
           =====                   =======         ======
           TBCCTL2                 0186 
    -------------------------------------------------------------------------
DATA16_AN
  Relative segment, address: 0190 - 0191 (0x2 bytes), align: 0
  Segment part 11. ROOT.      Intra module refs:   KeyIsrDo
                                                   LoggerExtInt (logger)
                                                   LoggerInit (logger)
                                                   LoggerSample (logger)
                                                   main (main)
           ENTRY                   ADDRESS         REF BY
           =====                   =======         ======
           TBR                     0190 
    -------------------------------------------------------------------------
DATA16_AN
  Relative segment, address: 0196 - 0197 (0x2 bytes), align: 0
  Segment part 12. ROOT.      Intra module refs:   KeyIsrDo
           ENTRY                   ADDRESS         REF BY
           =====                   =======         ======
           TBCCR2                  0196 
    -------------------------------------------------------------------------
<CODE> 1 (was CODE)
  Relative segment, address: BC9C - BCDF (0x44 bytes), align: 1
  Segment part 38.
           ENTRY                   ADDRESS         REF BY
           =====                   =======         ======
           KeyDeel                 BC9C            main (main)
               calls direct
               CSTACK = 00000000 ( 00000002 )
    -------------------------------------------------------------------------
<CODE> 1 (was CODE)
  Relative segment, address: C032 - C035 (0x4 bytes), align: 1
  Segment part 33.            Intra module refs:   KeyDeel
           ENTRY                   ADDRESS         REF BY
           =====                   =======         ======
           Key_4_Do                C032 
               CSTACK = 00000000 ( 00000002 )
    -------------------------------------------------------------------------
<CODE> 1 (was CODE)
  Relative segment, address: C036 - C03D (0x8 bytes), align: 1
  Segment part 34.            Intra module refs:   Key_1_Do
                                                   Key_4_Do
           LOCAL                   ADDRESS         
           =====                   =======         
           ?Subroutine1            C036 
    -------------------------------------------------------------------------
<CODE> 1 (was CODE)
  Relative segment, address: C03E - C051 (0x14 bytes), align: 1
  Segment part 35.            Intra module refs:   KeyDeel
           ENTRY                   ADDRESS         REF BY
           =====                   =======         ======
           Key_3_Do                C03E 
               CSTACK = 00000000 ( 00000002 )
    -------------------------------------------------------------------------
<CODE> 1 (was CODE)
  Relative segment, address: C052 - C05D (0xc bytes), align: 1
  Segment part 36.            Intra module refs:   KeyDeel
           ENTRY                   ADDRESS         REF BY
           =====                   =======         ======
           Key_2_Do                C052 
               calls direct
               CSTACK = 00000000 ( 00000002 )
    -------------------------------------------------------------------------
<CODE> 1 (was CODE)
  Relative segment, address: C05E - C063 (0x6 bytes), align: 1
  Segment part 37.            Intra module refs:   KeyDeel
           ENTRY                   ADDRESS         REF BY
           =====                   =======         ======
           Key_1_Do                C05E 
               CSTACK = 00000000 ( 00000002 )
    -------------------------------------------------------------------------
<CODE> 1 (was CODE)
  Relative segment, address: BB34 - BB7D (0x4a bytes), align: 1
  Segment part 26.            Intra module refs:   KeyDecDeel
                                                   Key_2_Do
           ENTRY                   ADDRESS         REF BY
           =====                   =======         ======
           KeyAlarm                BB34 
               calls direct
               CSTACK = 00000000 ( 00000002 )
    -------------------------------------------------------------------------
<CODE> 1 (was CODE)
  Relative segment, address: B998 - B9ED (0x56 bytes), align: 1
  Segment part 30.
           ENTRY                   ADDRESS         REF BY
           =====                   =======         ======
           KeyXiaoDou              B998            Timer_B (it)
               calls direct
               CSTACK = 00000000 ( 00000002 )
    -------------------------------------------------------------------------
<CODE> 1 (was CODE)
  Relative segment, address: C64C - C65B (0x10 bytes), align: 1
  Segment part 29.
           ENTRY                   ADDRESS         REF BY
           =====                   =======         ======
           Loop2Deel               C64C            main (main)
               calls direct
               CSTACK = 00000000 ( 00000002 )
    -------------------------------------------------------------------------
<CODE> 1 (was CODE)
  Relative segment, address: ABCC - ACB9 (0xee bytes), align: 1
  Segment part 27.            Intra module refs:   Loop2Deel
           ENTRY                   ADDRESS         REF BY
           =====                   =======         ======
           KeyDecDeel              ABCC 
               calls direct
               CSTACK = 00000000 ( 00000004 )
    -------------------------------------------------------------------------
<CODE> 1 (was CODE)
  Relative segment, address: C6A6 - C6B3 (0xe bytes), align: 1
  Segment part 28.            Intra module refs:   KeyDecDeel
           LOCAL                   ADDRESS         
           =====                   =======         
           ?Subroutine2            C6A6 
    -------------------------------------------------------------------------
<CODE> 1 (was CODE)
  Relative segment, address: C712 - C71D (0xc bytes), align: 1
  Segment part 25.
           ENTRY                   ADDRESS         REF BY
           =====                   =======         ======
           KeyTimeDe               C712            LoggerLoop (logger)
               CSTACK = 00000000 ( 00000002 )
    -------------------------------------------------------------------------
<CODE> 1 (was CODE)
  Relative segment, address: C67C - C689 (0xe bytes), align: 1
  Segment part 23.
           ENTRY                   ADDRESS         REF BY
           =====                   =======         ======
           KeyDoing                C67C            LoggerCalculateValue (logger)
                                                   LoggerSample (logger)
                                                   Segment part 52 (lcd)
               CSTACK = 00000000 ( 00000002 )
    -------------------------------------------------------------------------
<CODE> 1 (was CODE)
  Relative segment, address: B5F0 - B66B (0x7c bytes), align: 1
  Segment part 22.
           ENTRY                   ADDRESS         REF BY
           =====                   =======         ======
           KeyIsrDo                B5F0            port1_isr (it)
               calls direct
               CSTACK = 00000000 ( 00000002 )
    -------------------------------------------------------------------------
<CODE> 1 (was CODE)
  Relative segment, address: B474, align: 1
  Segment part 19.            Intra module refs:   KeyDeel
                                                   KeyXiaoDou
           ENTRY                   ADDRESS         REF BY
           =====                   =======         ======
           KeyIntSet               B474 
               CSTACK = 00000000 ( 00000002 )
    -------------------------------------------------------------------------
<CODE> 1 (was CODE)
  Relative segment, address: B474 - B4F1 (0x7e bytes), align: 1
  Segment part 20.            Intra module refs:   KeyIntSet
                                                   KeyPortInit
           LOCAL                   ADDRESS         
           =====                   =======         
           ?Subroutine0            B474 
    -------------------------------------------------------------------------
<CODE> 1 (was CODE)
  Relative segment, address: B4F2 - B4F3 (0x2 bytes), align: 1
  Segment part 21.
           ENTRY                   ADDRESS         REF BY
           =====                   =======         ======
           KeyPortInit             B4F2            McuInit (main)
               CSTACK = 00000000 ( 00000002 )
    -------------------------------------------------------------------------
<CODE> 1 (was CODE)
  Relative segment, address: C40C - C425 (0x1a bytes), align: 1
  Segment part 18.            Intra module refs:   KeyIsrDo
           ENTRY                   ADDRESS         REF BY
           =====                   =======         ======
           KeyIntClr               C40C 
               CSTACK = 00000000 ( 00000002 )

    *************************************************************************

  FILE NAME : E:\zz-cc\c0708\0708-141\Project\Debug\Obj\lcd.r43
  PROGRAM MODULE, NAME : lcd

  SEGMENTS IN THE MODULE
  ======================
DATA16_AN
  Relative segment, address: 001D - 001D (0x1 bytes), align: 0
  Segment part 1. ROOT.       Intra module refs:   BuInit
                                                   BuSendByte
                                                   ComSendH (main)
                                                   ComSendL (main)
                                                   LcdClear
                                                   LcdOneAddr
                                                   LcdShowOn
                                                   McuInit (main)
                                                   main (main)
           ENTRY                   ADDRESS         REF BY
           =====                   =======         ======
           P4OUT                   001D 
    -------------------------------------------------------------------------
DATA16_AN
  Relative segment, address: 001E - 001E (0x1 bytes), align: 0
  Segment part 2. ROOT.       Intra module refs:   BuInit
                                                   BuSendByte
                                                   ComSendH (main)
                                                   ComSendL (main)
                                                   LcdClear
                                                   LcdOneAddr
                                                   LcdShowOn
                                                   McuInit (main)
                                                   main (main)
           ENTRY                   ADDRESS         REF BY
           =====                   =======         ======
           P4DIR                   001E 
    -------------------------------------------------------------------------
DATA16_AN
  Relative segment, address: 0011 - 0011 (0x1 bytes), align: 0
  Segment part 3. ROOT.       Intra module refs:   BuInit
                                                   BuSendByte
                                                   LcdClear
                                                   LcdOneAddr
                                                   LcdShowOn
           ENTRY                   ADDRESS         REF BY
           =====                   =======         ======
           P4REN                   0011 
    -------------------------------------------------------------------------
DATA16_C
  Relative segment, address: 43A4 - 43AD (0xa bytes), align: 0
  Segment part 5.             Intra module refs:   ?Subroutine13
                                                   ?Subroutine15
                                                   ?Subroutine20
                                                   ?Subroutine24
                                                   ?Subroutine25
                                                   ?Subroutine26
                                                   ?Subroutine28
                                                   ?Subroutine43
                                                   ?Subroutine44
                                                   LcdChNoValueA
                                                   LcdChNoValueB
                                                   LcdNN
                                                   LcdNull
                                                   LcdOFFX
                                                   LcdTime
           ENTRY                   ADDRESS         REF BY
           =====                   =======         ======
           digit1                  43A4 
    -------------------------------------------------------------------------
DATA16_Z
  Relative segment, address: 174E - 175F (0x12 bytes), align: 0
  Segment part 6.             Intra module refs:   ?Subroutine11
                                                   ?Subroutine13
                                                   ?Subroutine15
                                                   ?Subroutine2
                                                   ?Subroutine20
                                                   ?Subroutine21
                                                   ?Subroutine24
                                                   ?Subroutine25
                                                   ?Subroutine26
                                                   ?Subroutine28
                                                   ?Subroutine3
                                                   ?Subroutine39
                                                   ?Subroutine43
                                                   ?Subroutine44
                                                   BuToLcdRam
                                                   Lcd1Laba
                                                   Lcd1Unit
                                                   Lcd2Laba
                                                   Lcd2Unit
                                                   LcdA3dst
                                                   LcdAlarmOn
                                                   LcdB3dst
                                                   LcdBatOn
                                                   LcdChNoDeel
                                                   LcdChNoValueA
                                                   LcdChNoValueB
                                                   LcdClear
                                                   LcdClrUnit
                                                   LcdGsmXh
                                                   LcdHourFlag
                                                   LcdMcuRst
                                                   LcdMonthFlag
                                                   LcdNN
                                                   LcdNull
                                                   LcdOFFX
                                                   LcdRtcTime
                                                   LcdTime
                                                   LcdYearFlag
           ENTRY                   ADDRESS         REF BY
           =====                   =======         ======
           LcdRam                  174E 
    -------------------------------------------------------------------------
<CODE> 1 (was CODE)
  Relative segment, address: B9EE - BA43 (0x56 bytes), align: 1
  Segment part 7.             Intra module refs:   BuInit
                                                   LcdClear
                                                   LcdOneAddr
           ENTRY                   ADDRESS         REF BY
           =====                   =======         ======
           BuSendByte              B9EE 
               CSTACK = 00000000 ( 00000002 )
    -------------------------------------------------------------------------
<CODE> 1 (was CODE)
  Relative segment, address: C66C - C67B (0x10 bytes), align: 1
  Segment part 8.             Intra module refs:   BuSendByte
           LOCAL                   ADDRESS         
           =====                   =======         
           ?Subroutine5            C66C 
    -------------------------------------------------------------------------
<CODE> 1 (was CODE)
  Relative segment, address: 7D70 - 7E07 (0x98 bytes), align: 1
  Segment part 16.            Intra module refs:   LcdChNoDeel
           ENTRY                   ADDRESS         REF BY
           =====                   =======         ======
           Lcd2Unit                7D70 
               CSTACK = 00000000 ( 00000002 )
    -------------------------------------------------------------------------
<CODE> 1 (was CODE)
  Relative segment, address: 7E08 - 7E0D (0x6 bytes), align: 1
  Segment part 17.            Intra module refs:   Lcd1Unit
                                                   Lcd2Unit
           LOCAL                   ADDRESS         
           =====                   =======         
           ?Subroutine2            7E08 
    -------------------------------------------------------------------------
<CODE> 1 (was CODE)
  Relative segment, address: 7E0E - 7E1D (0x10 bytes), align: 1
  Segment part 18.            Intra module refs:   LcdChNoDeel
           ENTRY                   ADDRESS         REF BY
           =====                   =======         ======
           Lcd2Laba                7E0E 
               CSTACK = 00000000 ( 00000002 )
    -------------------------------------------------------------------------
<CODE> 1 (was CODE)
  Relative segment, address: 7E1E - 7EA9 (0x8c bytes), align: 1
  Segment part 19.            Intra module refs:   LcdChNoDeel
           ENTRY                   ADDRESS         REF BY
           =====                   =======         ======
           Lcd1Unit                7E1E 
               CSTACK = 00000000 ( 00000002 )
    -------------------------------------------------------------------------
<CODE> 1 (was CODE)
  Relative segment, address: 7EAA - 7EC7 (0x1e bytes), align: 1
  Segment part 20.            Intra module refs:   Lcd1Unit
                                                   Lcd2Unit
           LOCAL                   ADDRESS         
           =====                   =======         
           ?Subroutine18           7EAA 
    -------------------------------------------------------------------------
<CODE> 1 (was CODE)
  Relative segment, address: 7EC8 - 7ED7 (0x10 bytes), align: 1
  Segment part 21.            Intra module refs:   LcdChNoDeel
           ENTRY                   ADDRESS         REF BY
           =====                   =======         ======
           Lcd1Laba                7EC8 
               CSTACK = 00000000 ( 00000002 )
    -------------------------------------------------------------------------
<CODE> 1 (was CODE)
  Relative segment, address: 7ED8 - 7F69 (0x92 bytes), align: 1
  Segment part 22.            Intra module refs:   LcdChNoValueB
           ENTRY                   ADDRESS         REF BY
           =====                   =======         ======
           LcdB3dst                7ED8 
               CSTACK = 00000000 ( 00000006 )
    -------------------------------------------------------------------------
<CODE> 1 (was CODE)
  Relative segment, address: 7F6A - 7F6D (0x4 bytes), align: 1
  Segment part 23.            Intra module refs:   LcdB3dst
           LOCAL                   ADDRESS         
           =====                   =======         
           ?Subroutine32           7F6A 
    -------------------------------------------------------------------------
<CODE> 1 (was CODE)
  Relative segment, address: 7F6E - 7F73 (0x6 bytes), align: 1
  Segment part 24.            Intra module refs:   ?Subroutine32
                                                   ?Subroutine33
           LOCAL                   ADDRESS         
           =====                   =======         
           ?Subroutine53           7F6E 
    -------------------------------------------------------------------------
<CODE> 1 (was CODE)
  Relative segment, address: 7F74 - 7F7F (0xc bytes), align: 1
  Segment part 25.            Intra module refs:   ?Subroutine32
                                                   LcdB3dst
           LOCAL                   ADDRESS         
           =====                   =======         
           ?Subroutine43           7F74 
    -------------------------------------------------------------------------
<CODE> 1 (was CODE)
  Relative segment, address: 7F80 - 7F8B (0xc bytes), align: 1
  Segment part 26.            Intra module refs:   LcdB3dst
           LOCAL                   ADDRESS         
           =====                   =======         
           ?Subroutine28           7F80 
    -------------------------------------------------------------------------
<CODE> 1 (was CODE)
  Relative segment, address: 7F8C - 7F97 (0xc bytes), align: 1
  Segment part 27.            Intra module refs:   LcdB3dst
           LOCAL                   ADDRESS         
           =====                   =======         
           ?Subroutine25           7F8C 
    -------------------------------------------------------------------------
<CODE> 1 (was CODE)
  Relative segment, address: 7F98 - 7F9B (0x4 bytes), align: 1
  Segment part 28.            Intra module refs:   ?Subroutine25
                                                   ?Subroutine26
           LOCAL                   ADDRESS         
           =====                   =======         
           ?Subroutine42           7F98 
    -------------------------------------------------------------------------
<CODE> 1 (was CODE)
  Relative segment, address: 7F9C - 7F9F (0x4 bytes), align: 1
  Segment part 29.            Intra module refs:   ?Subroutine24
                                                   ?Subroutine28
                                                   ?Subroutine42
    -------------------------------------------------------------------------
<CODE> 1 (was CODE)
  Relative segment, address: 7FA0 - 7FA5 (0x6 bytes), align: 1
  Segment part 30.            Intra module refs:   ?Subroutine42
                                                   ?Subroutine49
                                                   Segment part 29
           LOCAL                   ADDRESS         
           =====                   =======         
           ?Subroutine54           7FA0 
    -------------------------------------------------------------------------
<CODE> 1 (was CODE)
  Relative segment, address: 7FA6 - 7FC7 (0x22 bytes), align: 1
  Segment part 31.            Intra module refs:   ?Subroutine20
                                                   LcdChNoDeel
                                                   LcdOFFX
           ENTRY                   ADDRESS         REF BY
           =====                   =======         ======
           LcdClrUnit              7FA6 
               CSTACK = 00000000 ( 00000002 )
    -------------------------------------------------------------------------
<CODE> 1 (was CODE)
  Relative segment, address: 7FC8 - 8023 (0x5c bytes), align: 1
  Segment part 32.
           ENTRY                   ADDRESS         REF BY
           =====                   =======         ======
           LcdOFFX                 7FC8            PCBSQ_Record (logger)
                                                   Print_Begin (print)
                                                   SmsKeyOff (gsm)
               calls direct
               CSTACK = 00000000 ( 00000004 )
    -------------------------------------------------------------------------
<CODE> 1 (was CODE)
  Relative segment, address: 8024 - 806F (0x4c bytes), align: 1
  Segment part 33.            Intra module refs:   LcdChNoValueA
                                                   LcdChNoValueB
           ENTRY                   ADDRESS         REF BY
           =====                   =======         ======
           LcdNull                 8024 
               CSTACK = 00000000 ( 00000002 )
    -------------------------------------------------------------------------
<CODE> 1 (was CODE)
  Relative segment, address: 8070 - 8131 (0xc2 bytes), align: 1
  Segment part 34.            Intra module refs:   LcdChNoDeel
           ENTRY                   ADDRESS         REF BY
           =====                   =======         ======
           LcdChNoValueB           8070 
               calls direct
               CSTACK = 00000000 ( 0000000A )
    -------------------------------------------------------------------------
<CODE> 1 (was CODE)
  Relative segment, address: 8132 - 81BD (0x8c bytes), align: 1
  Segment part 35.            Intra module refs:   LcdChNoValueA
           ENTRY                   ADDRESS         REF BY
           =====                   =======         ======
           LcdA3dst                8132 
               CSTACK = 00000000 ( 00000006 )
    -------------------------------------------------------------------------
<CODE> 1 (was CODE)
  Relative segment, address: 81BE - 81C3 (0x6 bytes), align: 1
  Segment part 36.            Intra module refs:   LcdA3dst
           LOCAL                   ADDRESS         
           =====                   =======         
           ?Subroutine33           81BE 
    -------------------------------------------------------------------------
<CODE> 1 (was CODE)
  Relative segment, address: 81C4 - 81CF (0xc bytes), align: 1
  Segment part 37.            Intra module refs:   ?Subroutine33
                                                   LcdA3dst
           LOCAL                   ADDRESS         
           =====                   =======         
           ?Subroutine44           81C4 
    -------------------------------------------------------------------------
<CODE> 1 (was CODE)
  Relative segment, address: 81D0 - 81D3 (0x4 bytes), align: 1
  Segment part 38.            Intra module refs:   ?Subroutine43
                                                   ?Subroutine44
           LOCAL                   ADDRESS         
           =====                   =======         
           ?Subroutine49           81D0 
    -------------------------------------------------------------------------
<CODE> 1 (was CODE)
  Relative segment, address: 81D4 - 81DF (0xc bytes), align: 1
  Segment part 39.            Intra module refs:   LcdA3dst
           LOCAL                   ADDRESS         
           =====                   =======         
           ?Subroutine26           81D4 
    -------------------------------------------------------------------------
<CODE> 1 (was CODE)
  Relative segment, address: 81E0 - 81ED (0xe bytes), align: 1
  Segment part 40.            Intra module refs:   LcdA3dst
                                                   LcdB3dst
           LOCAL                   ADDRESS         
           =====                   =======         
           ?Subroutine23           81E0 
    -------------------------------------------------------------------------
<CODE> 1 (was CODE)
  Relative segment, address: 81EE - 81F1 (0x4 bytes), align: 1
  Segment part 41.            Intra module refs:   LcdNN
           LOCAL                   ADDRESS         
           =====                   =======         
           ?Subroutine1            81EE 
    -------------------------------------------------------------------------
<CODE> 1 (was CODE)
  Relative segment, address: 81F2 - 81F7 (0x6 bytes), align: 1
  Segment part 42.            Intra module refs:   ?Subroutine1
                                                   LcdA3dst
                                                   LcdB3dst
                                                   LcdClear
    -------------------------------------------------------------------------
<CODE> 1 (was CODE)
  Relative segment, address: 81F8 - 82B7 (0xc0 bytes), align: 1
  Segment part 43.            Intra module refs:   LcdChNoDeel
           ENTRY                   ADDRESS         REF BY
           =====                   =======         ======
           LcdChNoValueA           81F8 
               calls direct
               CSTACK = 00000000 ( 0000000A )
    -------------------------------------------------------------------------
<CODE> 1 (was CODE)
  Relative segment, address: 82B8 - 82D3 (0x1c bytes), align: 1
  Segment part 44.            Intra module refs:   LcdChNoValueA
                                                   LcdChNoValueB
           LOCAL                   ADDRESS         
           =====                   =======         
           ?Subroutine35           82B8 
    -------------------------------------------------------------------------
<CODE> 1 (was CODE)
  Relative segment, address: 82D4 - 82DD (0xa bytes), align: 1
  Segment part 45.            Intra module refs:   LcdChNoValueA
                                                   LcdChNoValueB
           LOCAL                   ADDRESS         
           =====                   =======         
           ?Subroutine34           82D4 
    -------------------------------------------------------------------------
<CODE> 1 (was CODE)
  Relative segment, address: 82DE - 82DF (0x2 bytes), align: 1
  Segment part 46.            Intra module refs:   ?Subroutine17
                                                   ?Subroutine34
           LOCAL                   ADDRESS         
           =====                   =======         
           ?Subroutine46           82DE 
    -------------------------------------------------------------------------
<CODE> 1 (was CODE)
  Relative segment, address: 82E0 - 82E7 (0x8 bytes), align: 1
  Segment part 47.            Intra module refs:   ?Subroutine30
                                                   ?Subroutine46
    -------------------------------------------------------------------------
<CODE> 1 (was CODE)
  Relative segment, address: 82E8 - 82F5 (0xe bytes), align: 1
  Segment part 48.            Intra module refs:   LcdChNoValueA
                                                   LcdChNoValueB
           LOCAL                   ADDRESS         
           =====                   =======         
           ?Subroutine30           82E8 
    -------------------------------------------------------------------------
<CODE> 1 (was CODE)
  Relative segment, address: 82F6 - 830B (0x16 bytes), align: 1
  Segment part 49.            Intra module refs:   LcdChNoValueA
                                                   LcdChNoValueB
           LOCAL                   ADDRESS         
           =====                   =======         
           ?Subroutine17           82F6 
    -------------------------------------------------------------------------
<CODE> 1 (was CODE)
  Relative segment, address: 830C - 8311 (0x6 bytes), align: 1
  Segment part 50.            Intra module refs:   LcdChNoValueA
                                                   LcdChNoValueB
           LOCAL                   ADDRESS         
           =====                   =======         
           ?Subroutine6            830C 
    -------------------------------------------------------------------------
<CODE> 1 (was CODE)
  Relative segment, address: 8312 - 8313 (0x2 bytes), align: 1
  Segment part 51.            Intra module refs:   ?Subroutine6
           LOCAL                   ADDRESS         
           =====                   =======         
           ?Subroutine45           8312 
    -------------------------------------------------------------------------
<CODE> 1 (was CODE)
  Relative segment, address: 8314 - 831B (0x8 bytes), align: 1
  Segment part 52.            Intra module refs:   ?Subroutine45
                                                   LcdChNoDeel
                                                   LcdOFFX
    -------------------------------------------------------------------------
<CODE> 1 (was CODE)
  Relative segment, address: 831C - 8427 (0x10c bytes), align: 1
  Segment part 53.
           ENTRY                   ADDRESS         REF BY
           =====                   =======         ======
           LcdChNoDeel             831C            LoggerLcdDeel (logger)
               calls direct
               CSTACK = 00000000 ( 0000000C )
    -------------------------------------------------------------------------
<CODE> 1 (was CODE)
  Relative segment, address: 8428 - 8429 (0x2 bytes), align: 1
  Segment part 54.            Intra module refs:   LcdChNoDeel
           LOCAL                   ADDRESS         
           =====                   =======         
           ?Subroutine38           8428 
    -------------------------------------------------------------------------
<CODE> 1 (was CODE)
  Relative segment, address: 842A - 8433 (0xa bytes), align: 1
  Segment part 55.            Intra module refs:   ?Subroutine38
                                                   LcdChNoDeel
    -------------------------------------------------------------------------
<CODE> 1 (was CODE)
  Relative segment, address: 8434 - 844D (0x1a bytes), align: 1
  Segment part 56.            Intra module refs:   LcdChNoDeel
           LOCAL                   ADDRESS         
           =====                   =======         
           ?Subroutine36           8434 
    -------------------------------------------------------------------------
<CODE> 1 (was CODE)
  Relative segment, address: 844E - 845D (0x10 bytes), align: 1
  Segment part 57.            Intra module refs:   Lcd2Unit
                                                   LcdChNoDeel
           LOCAL                   ADDRESS         
           =====                   =======         
           ?Subroutine21           844E 
    -------------------------------------------------------------------------
<CODE> 1 (was CODE)
  Relative segment, address: 845E - 845F (0x2 bytes), align: 1
  Segment part 58.
           ENTRY                   ADDRESS         REF BY
           =====                   =======         ======
           LcdValue                845E            KeyAlarm (key)
                                                   SetAlarm (uart_pc)
               CSTACK = 00000000 ( 00000002 )
    -------------------------------------------------------------------------
<CODE> 1 (was CODE)
  Relative segment, address: 8460 - 846B (0xc bytes), align: 1
  Segment part 64.            Intra module refs:   LcdA3dst
           LOCAL                   ADDRESS         
           =====                   =======         
           ?Subroutine24           8460 
    -------------------------------------------------------------------------
<CODE> 1 (was CODE)
  Relative segment, address: 846C - 8475 (0xa bytes), align: 1
  Segment part 69.            Intra module refs:   LcdChNoDeel
           LOCAL                   ADDRESS         
           =====                   =======         
           ?Subroutine37           846C 
    -------------------------------------------------------------------------
<CODE> 1 (was CODE)
  Relative segment, address: 8476 - 8499 (0x24 bytes), align: 1
  Segment part 88.
           ENTRY                   ADDRESS         REF BY
           =====                   =======         ======
           LcdBatOn                8476            ADC12ISR (it)
               calls direct
               CSTACK = 00000000 ( 00000002 )
    -------------------------------------------------------------------------
<CODE> 1 (was CODE)
  Relative segment, address: 849A - 84C5 (0x2c bytes), align: 1
  Segment part 90.
           ENTRY                   ADDRESS         REF BY
           =====                   =======         ======
           LcdAlarmOn              849A            KeyAlarm (key)
                                                   LcdAlarmEn (logger)
               calls direct
               CSTACK = 00000000 ( 00000002 )
    -------------------------------------------------------------------------
<CODE> 1 (was CODE)
  Relative segment, address: 84C6 - 84D3 (0xe bytes), align: 1
  Segment part 91.
           ENTRY                   ADDRESS         REF BY
           =====                   =======         ======
           LcdMcuRst               84C6            main (main)
               calls direct
               CSTACK = 00000000 ( 00000002 )
    -------------------------------------------------------------------------
<CODE> 1 (was CODE)
  Relative segment, address: 84D4 - 8529 (0x56 bytes), align: 1
  Segment part 92.            Intra module refs:   BuInit
           ENTRY                   ADDRESS         REF BY
           =====                   =======         ======
           LcdClear                84D4 
               calls direct and indirect
               CSTACK = 00000000 ( 00000006 )
    -------------------------------------------------------------------------
<CODE> 1 (was CODE)
  Relative segment, address: 852A - 853D (0x14 bytes), align: 1
  Segment part 93.            Intra module refs:   ?Subroutine47
                                                   BuInit
                                                   LcdClear
                                                   LcdOneAddr
           LOCAL                   ADDRESS         
           =====                   =======         
           ?Subroutine50           852A 
    -------------------------------------------------------------------------
<CODE> 1 (was CODE)
  Relative segment, address: 853E - 8547 (0xa bytes), align: 1
  Segment part 94.            Intra module refs:   BuInit
                                                   LcdClear
           LOCAL                   ADDRESS         
           =====                   =======         
           ?Subroutine9            853E 
    -------------------------------------------------------------------------
<CODE> 1 (was CODE)
  Relative segment, address: 8548 - 855B (0x14 bytes), align: 1
  Segment part 95.            Intra module refs:   ?Subroutine47
                                                   ?Subroutine9
                                                   BuInit
                                                   LcdClear
                                                   LcdOneAddr
           LOCAL                   ADDRESS         
           =====                   =======         
           ?Subroutine51           8548 
    -------------------------------------------------------------------------
<CODE> 1 (was CODE)
  Relative segment, address: 855C - 8573 (0x18 bytes), align: 1
  Segment part 96.            Intra module refs:   LcdClear
           LOCAL                   ADDRESS         
           =====                   =======         
           ?Subroutine7            855C 
    -------------------------------------------------------------------------
<CODE> 1 (was CODE)
  Relative segment, address: 8574 - 85C3 (0x50 bytes), align: 1
  Segment part 97.
           ENTRY                   ADDRESS         REF BY
           =====                   =======         ======
           BuInit                  8574            main (main)
               calls direct
               CSTACK = 00000000 ( 00000004 )
    -------------------------------------------------------------------------
<CODE> 1 (was CODE)
  Relative segment, address: 85C4 - 85DB (0x18 bytes), align: 1
  Segment part 98.            Intra module refs:   BuInit
           LOCAL                   ADDRESS         
           =====                   =======         
           ?Subroutine8            85C4 
    -------------------------------------------------------------------------
<CODE> 1 (was CODE)
  Relative segment, address: 85DC - 85E9 (0xe bytes), align: 1
  Segment part 99.            Intra module refs:   ?Subroutine7
                                                   ?Subroutine8
           LOCAL                   ADDRESS         
           =====                   =======         
           ?Subroutine47           85DC 
    -------------------------------------------------------------------------
<CODE> 1 (was CODE)
  Relative segment, address: 85EA - 85ED (0x4 bytes), align: 1
  Segment part 101.           Intra module refs:   LcdRtcTime
           ENTRY                   ADDRESS         REF BY
           =====                   =======         ======
           LcdMonthFlag            85EA 
               CSTACK = 00000000 ( 00000002 )
    -------------------------------------------------------------------------
<CODE> 1 (was CODE)
  Relative segment, address: 85EE - 85F3 (0x6 bytes), align: 1
  Segment part 102.           Intra module refs:   LcdHourFlag
                                                   LcdMonthFlag
           LOCAL                   ADDRESS         
           =====                   =======         
           ?Subroutine3            85EE 
    -------------------------------------------------------------------------
<CODE> 1 (was CODE)
  Relative segment, address: 85F4 - 85FD (0xa bytes), align: 1
  Segment part 103.           Intra module refs:   LcdRtcTime
           ENTRY                   ADDRESS         REF BY
           =====                   =======         ======
           LcdYearFlag             85F4 
               CSTACK = 00000000 ( 00000002 )
    -------------------------------------------------------------------------
<CODE> 1 (was CODE)
  Relative segment, address: 85FE - 8603 (0x6 bytes), align: 1
  Segment part 104.           Intra module refs:   LcdRtcTime
           ENTRY                   ADDRESS         REF BY
           =====                   =======         ======
           LcdHourFlag             85FE 
               CSTACK = 00000000 ( 00000002 )
    -------------------------------------------------------------------------
<CODE> 1 (was CODE)
  Relative segment, address: 8604 - 8675 (0x72 bytes), align: 1
  Segment part 105.           Intra module refs:   LcdRtcTime
           ENTRY                   ADDRESS         REF BY
           =====                   =======         ======
           LcdTime                 8604 
               CSTACK = 00000000 ( 0000000A )
    -------------------------------------------------------------------------
<CODE> 1 (was CODE)
  Relative segment, address: 8676 - 8765 (0xf0 bytes), align: 1
  Segment part 106.
           ENTRY                   ADDRESS         REF BY
           =====                   =======         ======
           LcdRtcTime              8676            LoggerLoop (logger)
               calls direct
               CSTACK = 00000000 ( 00000002 )
    -------------------------------------------------------------------------
<CODE> 1 (was CODE)
  Relative segment, address: 8766 - 87A1 (0x3c bytes), align: 1
  Segment part 108.
           ENTRY                   ADDRESS         REF BY
           =====                   =======         ======
           LcdNN                   8766            LoggerInit (logger)
                                                   PrintKeyClr (print)
                                                   Print_SF_Data (print)
                                                   SmsKeyOn (gsm)
               calls direct
               CSTACK = 00000000 ( 00000006 )
    -------------------------------------------------------------------------
<CODE> 1 (was CODE)
  Relative segment, address: BF5E - BF85 (0x28 bytes), align: 1
  Segment part 129.
           ENTRY                   ADDRESS         REF BY
           =====                   =======         ======
           LcdShowOn               BF5E            LoggerExtInt (logger)
                                                   SmsKeyOn (gsm)
               CSTACK = 00000000 ( 00000002 )
    -------------------------------------------------------------------------
<CODE> 1 (was CODE)
  Relative segment, address: BF86 - BF93 (0xe bytes), align: 1
  Segment part 130.           Intra module refs:   ?Subroutine9
                                                   LcdShowOn
           LOCAL                   ADDRESS         
           =====                   =======         
           ?Subroutine48           BF86 
    -------------------------------------------------------------------------
<CODE> 1 (was CODE)
  Relative segment, address: BCE0 - BD23 (0x44 bytes), align: 1
  Segment part 9.             Intra module refs:   BuToLcdRam
           ENTRY                   ADDRESS         REF BY
           =====                   =======         ======
           LcdOneAddr              BCE0 
               calls direct
               CSTACK = 00000000 ( 00000008 )
    -------------------------------------------------------------------------
<CODE> 1 (was CODE)
  Relative segment, address: C332 - C34D (0x1c bytes), align: 1
  Segment part 125.           Intra module refs:   LcdTime
           LOCAL                   ADDRESS         
           =====                   =======         
           ?Subroutine15           C332 
    -------------------------------------------------------------------------
<CODE> 1 (was CODE)
  Relative segment, address: C316 - C331 (0x1c bytes), align: 1
  Segment part 126.           Intra module refs:   LcdTime
           LOCAL                   ADDRESS         
           =====                   =======         
           ?Subroutine13           C316 
    -------------------------------------------------------------------------
<CODE> 1 (was CODE)
  Relative segment, address: C776 - C77B (0x6 bytes), align: 1
  Segment part 127.           Intra module refs:   ?Subroutine13
                                                   ?Subroutine15
           LOCAL                   ADDRESS         
           =====                   =======         
           ?Subroutine41           C776 
    -------------------------------------------------------------------------
<CODE> 1 (was CODE)
  Relative segment, address: B88A - B8E5 (0x5c bytes), align: 1
  Segment part 121.
           ENTRY                   ADDRESS         REF BY
           =====                   =======         ======
           LcdGsmXh                B88A            GsmFireDeel (gsm)
                                                   LoggerExtInt (logger)
                                                   SmsKeyOff (gsm)
                                                   SmsKeyOn (gsm)
                                                   U0Deel (gsm)
               calls direct
               CSTACK = 00000000 ( 00000002 )
    -------------------------------------------------------------------------
<CODE> 1 (was CODE)
  Relative segment, address: C528 - C539 (0x12 bytes), align: 1
  Segment part 120.           Intra module refs:   ?Subroutine11
                                                   LcdOFFX
           LOCAL                   ADDRESS         
           =====                   =======         
           ?Subroutine39           C528 
    -------------------------------------------------------------------------
<CODE> 1 (was CODE)
  Relative segment, address: BC10 - BC11 (0x2 bytes), align: 1
  Segment part 109.           Intra module refs:   LcdNN
           LOCAL                   ADDRESS         
           =====                   =======         
           ?Subroutine19           BC10 
    -------------------------------------------------------------------------
<CODE> 1 (was CODE)
  Relative segment, address: BC12 - BC13 (0x2 bytes), align: 1
  Segment part 110.           Intra module refs:   ?Subroutine19
    -------------------------------------------------------------------------
<CODE> 1 (was CODE)
  Relative segment, address: BC14 - BC1B (0x8 bytes), align: 1
  Segment part 111.           Intra module refs:   ?Subroutine19
                                                   Segment part 110
           LOCAL                   ADDRESS         
           =====                   =======         
           ?Subroutine52           BC14 
    -------------------------------------------------------------------------
<CODE> 1 (was CODE)
  Relative segment, address: BC1C - BC27 (0xc bytes), align: 1
  Segment part 112.           Intra module refs:   LcdNN
           LOCAL                   ADDRESS         
           =====                   =======         
           ?Subroutine14           BC1C 
    -------------------------------------------------------------------------
<CODE> 1 (was CODE)
  Relative segment, address: BC28 - BC31 (0xa bytes), align: 1
  Segment part 113.           Intra module refs:   ?Subroutine14
                                                   LcdNN
           LOCAL                   ADDRESS         
           =====                   =======         
           ?Subroutine40           BC28 
    -------------------------------------------------------------------------
<CODE> 1 (was CODE)
  Relative segment, address: BC32 - BC47 (0x16 bytes), align: 1
  Segment part 116.           Intra module refs:   LcdNN
           LOCAL                   ADDRESS         
           =====                   =======         
           ?Subroutine20           BC32 
    -------------------------------------------------------------------------
<CODE> 1 (was CODE)
  Relative segment, address: BC48 - BC55 (0xe bytes), align: 1
  Segment part 119.           Intra module refs:   LcdNN
           LOCAL                   ADDRESS         
           =====                   =======         
           ?Subroutine11           BC48 
    -------------------------------------------------------------------------
<CODE> 1 (was CODE)
  Relative segment, address: C1A4 - C1CD (0x2a bytes), align: 1
  Segment part 10.            Intra module refs:   ?Subroutine1
                                                   LcdAlarmOn
                                                   LcdBatOn
                                                   LcdChNoDeel
                                                   LcdGsmXh
                                                   LcdMcuRst
                                                   LcdOFFX
                                                   LcdRtcTime
           ENTRY                   ADDRESS         REF BY
           =====                   =======         ======
           BuToLcdRam              C1A4 
               calls direct
               CSTACK = 00000000 ( 00000008 )

    *************************************************************************

  FILE NAME : E:\zz-cc\c0708\0708-141\Project\Debug\Obj\led.r43
    *************************************************************************

  FILE NAME : E:\zz-cc\c0708\0708-141\Project\Debug\Obj\logger.r43
  PROGRAM MODULE, NAME : logger

  SEGMENTS IN THE MODULE
  ======================
DATA16_AN
  Relative segment, address: 0006 - 0006 (0x1 bytes), align: 0
  Segment part 1. ROOT.       Intra module refs:   LoggerRecOne
                                                   PrintEnd (print)
                                                   PrintStart (print)
                                                   U1Init (main)
           ENTRY                   ADDRESS         REF BY
           =====                   =======         ======
           UC1IE                   0006 
    -------------------------------------------------------------------------
DATA16_AN
  Relative segment, address: 0128 - 0129 (0x2 bytes), align: 0
  Segment part 4. ROOT.       Intra module refs:   ChAEnToFlash
                                                   CurveBufToFlash
                                                   alarm_buf_to_flash
                                                   channel_to_flash_fisrt
           ENTRY                   ADDRESS         REF BY
           =====                   =======         ======
           FCTL1                   0128 
    -------------------------------------------------------------------------
DATA16_AN
  Relative segment, address: 012A - 012B (0x2 bytes), align: 0
  Segment part 5. ROOT.       Intra module refs:   ChAEnToFlash
                                                   CurveBufToFlash
                                                   alarm_buf_to_flash
                                                   channel_to_flash_fisrt
           ENTRY                   ADDRESS         REF BY
           =====                   =======         ======
           FCTL2                   012A 
    -------------------------------------------------------------------------
DATA16_AN
  Relative segment, address: 012C - 012D (0x2 bytes), align: 0
  Segment part 6. ROOT.       Intra module refs:   ChAEnToFlash
                                                   CurveBufToFlash
                                                   alarm_buf_to_flash
                                                   channel_to_flash_fisrt
           ENTRY                   ADDRESS         REF BY
           =====                   =======         ======
           FCTL3                   012C 
    -------------------------------------------------------------------------
DATA16_AN
  Relative segment, address: 0184 - 0185 (0x2 bytes), align: 0
  Segment part 22. ROOT.      Intra module refs:   LoggerInit
                                                   main (main)
           ENTRY                   ADDRESS         REF BY
           =====                   =======         ======
           TBCCTL1                 0184 
    -------------------------------------------------------------------------
DATA16_AN
  Relative segment, address: 018C - 018D (0x2 bytes), align: 0
  Segment part 23. ROOT.      Intra module refs:   LoggerExtInt
           ENTRY                   ADDRESS         REF BY
           =====                   =======         ======
           TBCCTL5                 018C 
    -------------------------------------------------------------------------
DATA16_AN
  Relative segment, address: 0192 - 0193 (0x2 bytes), align: 0
  Segment part 25. ROOT.      Intra module refs:   LoggerSample
           ENTRY                   ADDRESS         REF BY
           =====                   =======         ======
           TBCCR0                  0192 
    -------------------------------------------------------------------------
DATA16_AN
  Relative segment, address: 0120 - 0121 (0x2 bytes), align: 0
  Segment part 28. ROOT.      Intra module refs:   ChAEnToFlash
                                                   CmdHexDeel (uart_pc)
                                                   CurveBufToFlash
                                                   TimeDecDeel
                                                   alarm_buf_to_flash
                                                   channel_to_flash_fisrt
                                                   main (main)
           ENTRY                   ADDRESS         REF BY
           =====                   =======         ======
           WDTCTL                  0120 
    -------------------------------------------------------------------------
DATA16_C
  Relative segment, address: 43AE - 43B3 (0x6 bytes), align: 0
  Segment part 30.            Intra module refs:   PCBSQ_Record
    -------------------------------------------------------------------------
DATA16_C
  Relative segment, address: 43B4 - 43BC (0x9 bytes), align: 0
  Segment part 31.            Intra module refs:   LoggerExtInt
    -------------------------------------------------------------------------
DATA16_C
  Relative segment, address: 43BD - 43C0 (0x4 bytes), align: 0
  Segment part 32.            Intra module refs:   TCP_LG31_Send_Head
    -------------------------------------------------------------------------
DATA16_C
  Relative segment, address: 43C1 - 43C9 (0x9 bytes), align: 0
  Segment part 33.            Intra module refs:   GprsSendOk
    -------------------------------------------------------------------------
DATA16_C
  Relative segment, address: 43CA - 43CC (0x3 bytes), align: 0
  Segment part 34.            Intra module refs:   ServerCmdSet
    -------------------------------------------------------------------------
DATA16_C
  Relative segment, address: 43CD - 43D1 (0x5 bytes), align: 0
  Segment part 35.            Intra module refs:   ServerCmdSet
    -------------------------------------------------------------------------
DATA16_C
  Relative segment, address: 43D2 - 43DD (0xc bytes), align: 0
  Segment part 36.            Intra module refs:   ServerCmdSet
    -------------------------------------------------------------------------
DATA16_C
  Relative segment, address: 43DE - 43E9 (0xc bytes), align: 0
  Segment part 37.            Intra module refs:   ServerCmdSet
    -------------------------------------------------------------------------
DATA16_C
  Relative segment, address: 43EA - 43EF (0x6 bytes), align: 0
  Segment part 43.            Intra module refs:   LoggerConfigFirst
           ENTRY                   ADDRESS         REF BY
           =====                   =======         ======
           start_time_first        43EA 
    -------------------------------------------------------------------------
DATA16_C
  Relative segment, address: 4000 - 406F (0x70 bytes), align: 1
  Segment part 44.            Intra module refs:   channel_to_flash_fisrt
           ENTRY                   ADDRESS         REF BY
           =====                   =======         ======
           channel_first           4000 
    -------------------------------------------------------------------------
DATA16_C
  Relative segment, address: 4070 - 409D (0x2e bytes), align: 1
  Segment part 71.            Intra module refs:   LoggerConfigFirst
           ENTRY                   ADDRESS         REF BY
           =====                   =======         ======
           pt_f200_100_first       4070 
    -------------------------------------------------------------------------
DATA16_C
  Relative segment, address: 409E - 40CB (0x2e bytes), align: 1
  Segment part 80.            Intra module refs:   LoggerConfigFirst
           ENTRY                   ADDRESS         REF BY
           =====                   =======         ======
           digit_0_100_first       409E 
    -------------------------------------------------------------------------
<CODE> 1 (was CODE)
  Relative segment, address: B756 - B7C3 (0x6e bytes), align: 1
  Segment part 306.
           ENTRY                   ADDRESS         REF BY
           =====                   =======         ======
           LoggerLoop              B756            main (main)
               calls direct
               CSTACK = 00000000 ( 00000002 )
    -------------------------------------------------------------------------
<CODE> 1 (was CODE)
  Relative segment, address: C094 - C0C3 (0x30 bytes), align: 1
  Segment part 305.           Intra module refs:   LoggerLoop
           ENTRY                   ADDRESS         REF BY
           =====                   =======         ======
           TimeDecDeel             C094 
               calls direct
               CSTACK = 00000000 ( 00000002 )
    -------------------------------------------------------------------------
<CODE> 1 (was CODE)
  Relative segment, address: C3A2 - C3BD (0x1c bytes), align: 1
  Segment part 304.           Intra module refs:   LoggerLoop
           ENTRY                   ADDRESS         REF BY
           =====                   =======         ======
           LoggerWorkDeel          C3A2 
               calls direct
               CSTACK = 00000000 ( 00000002 )
    -------------------------------------------------------------------------
<CODE> 1 (was CODE)
  Relative segment, address: C7AA - C7AB (0x2 bytes), align: 1
  Segment part 303.
           ENTRY                   ADDRESS         REF BY
           =====                   =======         ======
           LoggerStop              C7AA            SetReStart (uart_pc)
                                                   SetStateB (uart_pc)
               CSTACK = 00000000 ( 00000002 )
    -------------------------------------------------------------------------
<CODE> 1 (was CODE)
  Relative segment, address: 453E - 4545 (0x8 bytes), align: 1
  Segment part 140.           Intra module refs:   Gprs_SF_Tramit_Data
                                                   ServerCmdSet
                                                   TCP_LG31_Send_Head
                                                   TCP_LG_Send_Data
           ENTRY                   ADDRESS         REF BY
           =====                   =======         ======
           UxSendByte              453E 
               calls direct
               CSTACK = 00000000 ( 00000004 )
    -------------------------------------------------------------------------
<CODE> 1 (was CODE)
  Relative segment, address: 4546 - 454B (0x6 bytes), align: 1
  Segment part 141.           Intra module refs:   BufTx
                                                   UxSendByte
           LOCAL                   ADDRESS         
           =====                   =======         
           ?Subroutine3            4546 
    -------------------------------------------------------------------------
<CODE> 1 (was CODE)
  Relative segment, address: 454C - 4685 (0x13a bytes), align: 1
  Segment part 142.           Intra module refs:   GprsUpSend
           ENTRY                   ADDRESS         REF BY
           =====                   =======         ======
           TCP_LG_Send_Data        454C 
               calls direct and indirect
               CSTACK = 00000000 ( 0000001C )
    -------------------------------------------------------------------------
<CODE> 1 (was CODE)
  Relative segment, address: 4686 - 469F (0x1a bytes), align: 1
  Segment part 143.           Intra module refs:   TCP_LG_Send_Data
           LOCAL                   ADDRESS         
           =====                   =======         
           ?Subroutine13           4686 
    -------------------------------------------------------------------------
<CODE> 1 (was CODE)
  Relative segment, address: 46A0 - 46BD (0x1e bytes), align: 1
  Segment part 144.           Intra module refs:   TCP_LG_Send_Data
           LOCAL                   ADDRESS         
           =====                   =======         
           ?Subroutine10           46A0 
    -------------------------------------------------------------------------
<CODE> 1 (was CODE)
  Relative segment, address: 46BE - 47A1 (0xe4 bytes), align: 1
  Segment part 145.           Intra module refs:   GprsUpSend
           ENTRY                   ADDRESS         REF BY
           =====                   =======         ======
           TCP_LG31_Send_Head      46BE 
               calls direct and indirect
               CSTACK = 00000000 ( 00000010 )
    -------------------------------------------------------------------------
<CODE> 1 (was CODE)
  Relative segment, address: 47A2 - 47A7 (0x6 bytes), align: 1
  Segment part 146.           Intra module refs:   TCP_LG31_Send_Head
           LOCAL                   ADDRESS         
           =====                   =======         
           ?Subroutine18           47A2 
    -------------------------------------------------------------------------
<CODE> 1 (was CODE)
  Relative segment, address: 47A8 - 47AF (0x8 bytes), align: 1
  Segment part 147.           Intra module refs:   ?Subroutine18
                                                   ServerCmdSet
    -------------------------------------------------------------------------
<CODE> 1 (was CODE)
  Relative segment, address: 47B0 - 47D3 (0x24 bytes), align: 1
  Segment part 148.           Intra module refs:   Buf_To_Gprs
           ENTRY                   ADDRESS         REF BY
           =====                   =======         ======
           GprsUpSend              47B0 
               calls direct
               CSTACK = 00000000 ( 00000006 )
    -------------------------------------------------------------------------
<CODE> 1 (was CODE)
  Relative segment, address: 47D4 - 47DD (0xa bytes), align: 1
  Segment part 149.           Intra module refs:   PCBSQ_RecOne
           ENTRY                   ADDRESS         REF BY
           =====                   =======         ======
           HavePow                 47D4            PowInDeel (gsm)
               CSTACK = 00000000 ( 00000002 )
    -------------------------------------------------------------------------
<CODE> 1 (was CODE)
  Relative segment, address: 47DE - 4819 (0x3c bytes), align: 1
  Segment part 150.           Intra module refs:   PCBSQ_RecOne
           ENTRY                   ADDRESS         REF BY
           =====                   =======         ======
           GetBatt                 47DE            ADC12ISR (it)
               CSTACK = 00000000 ( 00000002 )
    -------------------------------------------------------------------------
<CODE> 1 (was CODE)
  Relative segment, address: 481A - 4829 (0x10 bytes), align: 1
  Segment part 154.           Intra module refs:   TCP_LG31_Send_Head
           LOCAL                   ADDRESS         
           =====                   =======         
           ?Subroutine19           481A 
    -------------------------------------------------------------------------
<CODE> 1 (was CODE)
  Relative segment, address: 482A - 4831 (0x8 bytes), align: 1
  Segment part 155.           Intra module refs:   LoggerExtInt
                                                   TCP_LG31_Send_Head
           LOCAL                   ADDRESS         
           =====                   =======         
           ?Subroutine16           482A 
    -------------------------------------------------------------------------
<CODE> 1 (was CODE)
  Relative segment, address: 4832 - 48D9 (0xa8 bytes), align: 1
  Segment part 157.           Intra module refs:   ServerCmdSet
           ENTRY                   ADDRESS         REF BY
           =====                   =======         ======
           alarm_buf_to_flash      4832            ?Subroutine13 (uart_pc)
                                                   ?Subroutine49 (gsm)
               CSTACK = 00000000 ( 00000208 )
    -------------------------------------------------------------------------
<CODE> 1 (was CODE)
  Relative segment, address: 48DA - 4B7B (0x2a2 bytes), align: 1
  Segment part 158.
           ENTRY                   ADDRESS         REF BY
           =====                   =======         ======
           ServerCmdSet            48DA            Gprs_SF_Recv_Do (gsm)
               calls direct
               CSTACK = 00000000 ( 0000002E )
    -------------------------------------------------------------------------
<CODE> 1 (was CODE)
  Relative segment, address: 4B7C - 4B87 (0xc bytes), align: 1
  Segment part 159.           Intra module refs:   ServerCmdSet
           LOCAL                   ADDRESS         
           =====                   =======         
           ?Subroutine35           4B7C 
    -------------------------------------------------------------------------
<CODE> 1 (was CODE)
  Relative segment, address: 4B88 - 4BA9 (0x22 bytes), align: 1
  Segment part 160.           Intra module refs:   ServerCmdSet
           LOCAL                   ADDRESS         
           =====                   =======         
           ?Subroutine30           4B88 
    -------------------------------------------------------------------------
<CODE> 1 (was CODE)
  Relative segment, address: 4BAA - 4BB9 (0x10 bytes), align: 1
  Segment part 161.           Intra module refs:   ServerCmdSet
           LOCAL                   ADDRESS         
           =====                   =======         
           ?Subroutine14           4BAA 
    -------------------------------------------------------------------------
<CODE> 1 (was CODE)
  Relative segment, address: 4BBA - 4BC5 (0xc bytes), align: 1
  Segment part 163.           Intra module refs:   ServerCmdSet
           LOCAL                   ADDRESS         
           =====                   =======         
           ?Subroutine40           4BBA 
    -------------------------------------------------------------------------
<CODE> 1 (was CODE)
  Relative segment, address: 4BC6 - 4BD5 (0x10 bytes), align: 1
  Segment part 164.           Intra module refs:   ServerCmdSet
           LOCAL                   ADDRESS         
           =====                   =======         
           ?Subroutine9            4BC6 
    -------------------------------------------------------------------------
<CODE> 1 (was CODE)
  Relative segment, address: 4BD6 - 4BDD (0x8 bytes), align: 1
  Segment part 165.           Intra module refs:   ?Subroutine9
           LOCAL                   ADDRESS         
           =====                   =======         
           ?Subroutine52           4BD6 
    -------------------------------------------------------------------------
<CODE> 1 (was CODE)
  Relative segment, address: 4BDE - 4BE5 (0x8 bytes), align: 1
  Segment part 167.           Intra module refs:   BufTx
                                                   LoggerRecOne
                                                   StateA1ToEE
                                                   StateA2ToEE
                                                   StateBToEE
           LOCAL                   ADDRESS         
           =====                   =======         
           ?Subroutine42           4BDE 
    -------------------------------------------------------------------------
<CODE> 1 (was CODE)
  Relative segment, address: 4BE6 - 4BF5 (0x10 bytes), align: 1
  Segment part 168.           Intra module refs:   ?Subroutine32
           ENTRY                   ADDRESS         REF BY
           =====                   =======         ======
           GetJY                   4BE6 
               CSTACK = 00000000 ( 00000002 )
    -------------------------------------------------------------------------
<CODE> 1 (was CODE)
  Relative segment, address: 4BF6 - 4BFB (0x6 bytes), align: 1
  Segment part 169.           Intra module refs:   BufTx
           ENTRY                   ADDRESS         REF BY
           =====                   =======         ======
           Buf_To_Gprs             4BF6 
               calls direct
               CSTACK = 00000000 ( 00000002 )
    -------------------------------------------------------------------------
<CODE> 1 (was CODE)
  Relative segment, address: 4BFC - 4C27 (0x2c bytes), align: 1
  Segment part 170.           Intra module refs:   ?Subroutine32
           ENTRY                   ADDRESS         REF BY
           =====                   =======         ======
           BufTx                   4BFC 
               calls direct
               CSTACK = 00000000 ( 00000004 )
    -------------------------------------------------------------------------
<CODE> 1 (was CODE)
  Relative segment, address: 4C28 - 4C75 (0x4e bytes), align: 1
  Segment part 171.           Intra module refs:   Gprs_SF_Send_Data
           ENTRY                   ADDRESS         REF BY
           =====                   =======         ======
           EE_Read_One             4C28 
               calls direct
               CSTACK = 00000000 ( 0000000A )
    -------------------------------------------------------------------------
<CODE> 1 (was CODE)
  Relative segment, address: 4C76 - 4C7D (0x8 bytes), align: 1
  Segment part 172.           Intra module refs:   EE_Read_One
           LOCAL                   ADDRESS         
           =====                   =======         
           ?Subroutine17           4C76 
    -------------------------------------------------------------------------
<CODE> 1 (was CODE)
  Relative segment, address: 4C7E - 4D73 (0xf6 bytes), align: 1
  Segment part 173.           Intra module refs:   Gprs_SF_Tramit_Data
           ENTRY                   ADDRESS         REF BY
           =====                   =======         ======
           Gprs_SF_Send_Data       4C7E            PrintDeel (print)
                                                   Read_GPRS_DATA_Bag (uart_pc)
               calls indirect
               CSTACK = 00000000 ( 00000030 )
    -------------------------------------------------------------------------
<CODE> 1 (was CODE)
  Relative segment, address: 4D74 - 4D87 (0x14 bytes), align: 1
  Segment part 174.           Intra module refs:   Gprs_SF_Send_Data
           LOCAL                   ADDRESS         
           =====                   =======         
           ?Subroutine32           4D74 
    -------------------------------------------------------------------------
<CODE> 1 (was CODE)
  Relative segment, address: 4D88 - 4D91 (0xa bytes), align: 1
  Segment part 175.           Intra module refs:   Gprs_SF_Send_Data
           LOCAL                   ADDRESS         
           =====                   =======         
           ?Subroutine11           4D88 
    -------------------------------------------------------------------------
<CODE> 1 (was CODE)
  Relative segment, address: 4D92 - 4D95 (0x4 bytes), align: 1
  Segment part 176.           Intra module refs:   Gprs_SF_Send_Data
           LOCAL                   ADDRESS         
           =====                   =======         
           ?Subroutine8            4D92 
    -------------------------------------------------------------------------
<CODE> 1 (was CODE)
  Relative segment, address: 4D96 - 4D9D (0x8 bytes), align: 1
  Segment part 177.           Intra module refs:   ?Subroutine8
                                                   Gprs_SF_Send_Data
    -------------------------------------------------------------------------
<CODE> 1 (was CODE)
  Relative segment, address: 4D9E - 4DA5 (0x8 bytes), align: 1
  Segment part 178.           Intra module refs:   ?Subroutine11
                                                   ?Subroutine8
                                                   Segment part 177
           LOCAL                   ADDRESS         
           =====                   =======         
           ?Subroutine53           4D9E 
    -------------------------------------------------------------------------
<CODE> 1 (was CODE)
  Relative segment, address: 4DA6 - 4DAF (0xa bytes), align: 1
  Segment part 179.           Intra module refs:   ?Subroutine53
                                                   Gprs_SF_Send_Data
    -------------------------------------------------------------------------
<CODE> 1 (was CODE)
  Relative segment, address: 4DB0 - 4E01 (0x52 bytes), align: 1
  Segment part 180.
           ENTRY                   ADDRESS         REF BY
           =====                   =======         ======
           Gprs_SF_Tramit_Data     4DB0            Gprs_SF_Deel (gsm)
               calls direct
               CSTACK = 00000000 ( 00000004 )
    -------------------------------------------------------------------------
<CODE> 1 (was CODE)
  Relative segment, address: 4E02 - 4E17 (0x16 bytes), align: 1
  Segment part 181.           Intra module refs:   GprsSendOk
                                                   LoggerConfigFirst
                                                   PCBSQ_RecOne
           ENTRY                   ADDRESS         REF BY
           =====                   =======         ======
           GprsDueOutToEE          4E02            SetReStart (uart_pc)
               calls direct
               CSTACK = 00000000 ( 00000004 )
    -------------------------------------------------------------------------
<CODE> 1 (was CODE)
  Relative segment, address: 4E18 - 4E21 (0xa bytes), align: 1
  Segment part 182.           Intra module refs:   GprsDueOutToEE
                                                   PCBSQ_RecNumPt_ToEE
           LOCAL                   ADDRESS         
           =====                   =======         
           ?Subroutine1            4E18 
    -------------------------------------------------------------------------
<CODE> 1 (was CODE)
  Relative segment, address: 4E22 - 4E8D (0x6c bytes), align: 1
  Segment part 183.
           ENTRY                   ADDRESS         REF BY
           =====                   =======         ======
           GprsSendOk              4E22            Gprs_SF_Recv_Do (gsm)
               calls direct
               CSTACK = 00000000 ( 00000002 )
    -------------------------------------------------------------------------
<CODE> 1 (was CODE)
  Relative segment, address: 4E8E - 4E99 (0xc bytes), align: 1
  Segment part 184.           Intra module refs:   GprsSendOk
                                                   TCP_LG_Send_Data
           LOCAL                   ADDRESS         
           =====                   =======         
           ?Subroutine15           4E8E 
    -------------------------------------------------------------------------
<CODE> 1 (was CODE)
  Relative segment, address: 4E9A - 4EBB (0x22 bytes), align: 1
  Segment part 185.           Intra module refs:   LoggerExtInt
           ENTRY                   ADDRESS         REF BY
           =====                   =======         ======
           GprsDueOutFromEE        4E9A 
               calls direct
               CSTACK = 00000000 ( 00000004 )
    -------------------------------------------------------------------------
<CODE> 1 (was CODE)
  Relative segment, address: 4EBC - 4EDF (0x24 bytes), align: 1
  Segment part 186.
           ENTRY                   ADDRESS         REF BY
           =====                   =======         ======
           GprsDataHav             4EBC            Gprs_SF_Deel (gsm)
                                                   U0Deel (gsm)
               CSTACK = 00000000 ( 00000002 )
    -------------------------------------------------------------------------
<CODE> 1 (was CODE)
  Relative segment, address: 4EE0 - 4EE5 (0x6 bytes), align: 1
  Segment part 187.
           ENTRY                   ADDRESS         REF BY
           =====                   =======         ======
           DogReset                4EE0            GsmFireDeel (gsm)
               CSTACK = 00000000 ( 00000002 )
    -------------------------------------------------------------------------
<CODE> 1 (was CODE)
  Relative segment, address: 4EE6 - 4F47 (0x62 bytes), align: 1
  Segment part 190.           Intra module refs:   GetSmsUni
           ENTRY                   ADDRESS         REF BY
           =====                   =======         ======
           GetSmsTitleUni          4EE6            GetPowUni (gsm)
               calls direct
               CSTACK = 00000000 ( 00000006 )
    -------------------------------------------------------------------------
<CODE> 1 (was CODE)
  Relative segment, address: 4F48 - 521F (0x2d8 bytes), align: 1
  Segment part 191.
           ENTRY                   ADDRESS         REF BY
           =====                   =======         ======
           GetSmsUni               4F48            SmsAlarmReady (gsm)
                                                   SmsRecDeel (gsm)
               calls direct
               CSTACK = 00000000 ( 00000026 )
    -------------------------------------------------------------------------
<CODE> 1 (was CODE)
  Relative segment, address: 5220 - 5231 (0x12 bytes), align: 1
  Segment part 192.           Intra module refs:   GetSmsUni
           LOCAL                   ADDRESS         
           =====                   =======         
           ?Subroutine45           5220 
    -------------------------------------------------------------------------
<CODE> 1 (was CODE)
  Relative segment, address: 5232 - 523B (0xa bytes), align: 1
  Segment part 193.           Intra module refs:   ?Subroutine24
                                                   GetSmsUni
           LOCAL                   ADDRESS         
           =====                   =======         
           ?Subroutine55           5232 
    -------------------------------------------------------------------------
<CODE> 1 (was CODE)
  Relative segment, address: 523C - 5245 (0xa bytes), align: 1
  Segment part 194.           Intra module refs:   ?Subroutine29
                                                   ?Subroutine55
                                                   GetSmsUni
           LOCAL                   ADDRESS         
           =====                   =======         
           ?Subroutine61           523C 
    -------------------------------------------------------------------------
<CODE> 1 (was CODE)
  Relative segment, address: 5246 - 5249 (0x4 bytes), align: 1
  Segment part 195.           Intra module refs:   GetSmsUni
           LOCAL                   ADDRESS         
           =====                   =======         
           ?Subroutine37           5246 
    -------------------------------------------------------------------------
<CODE> 1 (was CODE)
  Relative segment, address: 524A - 5251 (0x8 bytes), align: 1
  Segment part 196.           Intra module refs:   ?Subroutine37
                                                   GetSmsUni
    -------------------------------------------------------------------------
<CODE> 1 (was CODE)
  Relative segment, address: 5252 - 5259 (0x8 bytes), align: 1
  Segment part 197.           Intra module refs:   GetSmsUni
           LOCAL                   ADDRESS         
           =====                   =======         
           ?Subroutine29           5252 
    -------------------------------------------------------------------------
<CODE> 1 (was CODE)
  Relative segment, address: 525A - 5263 (0xa bytes), align: 1
  Segment part 198.           Intra module refs:   GetSmsUni
           LOCAL                   ADDRESS         
           =====                   =======         
           ?Subroutine28           525A 
    -------------------------------------------------------------------------
<CODE> 1 (was CODE)
  Relative segment, address: 5264 - 526B (0x8 bytes), align: 1
  Segment part 199.           Intra module refs:   ?Subroutine28
                                                   ?Subroutine29
                                                   ?Subroutine51
                                                   GetSmsUni
           LOCAL                   ADDRESS         
           =====                   =======         
           ?Subroutine60           5264 
    -------------------------------------------------------------------------
<CODE> 1 (was CODE)
  Relative segment, address: 526C - 5277 (0xc bytes), align: 1
  Segment part 200.           Intra module refs:   ?Subroutine26
                                                   GetSmsUni
           LOCAL                   ADDRESS         
           =====                   =======         
           ?Subroutine51           526C 
    -------------------------------------------------------------------------
<CODE> 1 (was CODE)
  Relative segment, address: 5278 - 5283 (0xc bytes), align: 1
  Segment part 201.           Intra module refs:   GetSmsUni
           LOCAL                   ADDRESS         
           =====                   =======         
           ?Subroutine26           5278 
    -------------------------------------------------------------------------
<CODE> 1 (was CODE)
  Relative segment, address: 5284 - 5297 (0x14 bytes), align: 1
  Segment part 202.           Intra module refs:   GetSmsUni
           LOCAL                   ADDRESS         
           =====                   =======         
           ?Subroutine25           5284 
    -------------------------------------------------------------------------
<CODE> 1 (was CODE)
  Relative segment, address: 5298 - 529D (0x6 bytes), align: 1
  Segment part 203.           Intra module refs:   GetSmsUni
           LOCAL                   ADDRESS         
           =====                   =======         
           ?Subroutine24           5298 
    -------------------------------------------------------------------------
<CODE> 1 (was CODE)
  Relative segment, address: 529E - 52A1 (0x4 bytes), align: 1
  Segment part 204.           Intra module refs:   ?Subroutine24
                                                   ?Subroutine25
           LOCAL                   ADDRESS         
           =====                   =======         
           ?Subroutine54           529E 
    -------------------------------------------------------------------------
<CODE> 1 (was CODE)
  Relative segment, address: 52A2 - 52A9 (0x8 bytes), align: 1
  Segment part 205.           Intra module refs:   ?Subroutine54
                                                   Segment part 196
    -------------------------------------------------------------------------
<CODE> 1 (was CODE)
  Relative segment, address: 52AA - 52B3 (0xa bytes), align: 1
  Segment part 206.           Intra module refs:   GetSmsUni
                                                   Segment part 205
    -------------------------------------------------------------------------
<CODE> 1 (was CODE)
  Relative segment, address: 52B4 - 52D5 (0x22 bytes), align: 1
  Segment part 207.
           ENTRY                   ADDRESS         REF BY
           =====                   =======         ======
           GetPhoneHaoFromEE       52B4            ?Subroutine61 (gsm)
               calls direct
               CSTACK = 00000000 ( 00000004 )
    -------------------------------------------------------------------------
<CODE> 1 (was CODE)
  Relative segment, address: 52D6 - 52F5 (0x20 bytes), align: 1
  Segment part 208.
           ENTRY                   ADDRESS         REF BY
           =====                   =======         ======
           GetPhoneNumFromEE       52D6            ?Subroutine45 (gsm)
                                                   ?Subroutine47 (gsm)
                                                   SmsAlarmDeel (gsm)
               calls direct
               CSTACK = 00000000 ( 00000004 )
    -------------------------------------------------------------------------
<CODE> 1 (was CODE)
  Relative segment, address: 52F6 - 532B (0x36 bytes), align: 1
  Segment part 209.
           ENTRY                   ADDRESS         REF BY
           =====                   =======         ======
           SetPhoneToEE            52F6            SetPhone (uart_pc)
                                                   SmsRecDeel (gsm)
               calls direct
               CSTACK = 00000000 ( 00000002 )
    -------------------------------------------------------------------------
<CODE> 1 (was CODE)
  Relative segment, address: 532C - 5337 (0xc bytes), align: 1
  Segment part 211.           Intra module refs:   FilterClr
                                                   LoggerCalculateValue
           ENTRY                   ADDRESS         REF BY
           =====                   =======         ======
           FilterChClr             532C 
               CSTACK = 00000000 ( 00000002 )
    -------------------------------------------------------------------------
<CODE> 1 (was CODE)
  Relative segment, address: 5338 - 5347 (0x10 bytes), align: 1
  Segment part 212.           Intra module refs:   RestartClr
           ENTRY                   ADDRESS         REF BY
           =====                   =======         ======
           FilterClr               5338            SmsKeyOn (gsm)
               calls direct
               CSTACK = 00000000 ( 00000002 )
    -------------------------------------------------------------------------
<CODE> 1 (was CODE)
  Relative segment, address: 5348 - 535B (0x14 bytes), align: 1
  Segment part 213.           Intra module refs:   LoggerInit
           ENTRY                   ADDRESS         REF BY
           =====                   =======         ======
           RestartClr              5348            SetReStart (uart_pc)
               calls direct
               CSTACK = 00000000 ( 00000002 )
    -------------------------------------------------------------------------
<CODE> 1 (was CODE)
  Relative segment, address: 535C - 5397 (0x3c bytes), align: 1
  Segment part 214.           Intra module refs:   LoggerInit
           ENTRY                   ADDRESS         REF BY
           =====                   =======         ======
           EEToStateB              535C 
               calls direct
               CSTACK = 00000000 ( 0000001A )
    -------------------------------------------------------------------------
<CODE> 1 (was CODE)
  Relative segment, address: 5398 - 543B (0xa4 bytes), align: 1
  Segment part 215.           Intra module refs:   LoggerConfigFirst
           ENTRY                   ADDRESS         REF BY
           =====                   =======         ======
           StateBToEE              5398            SetStateB (uart_pc)
               calls direct
               CSTACK = 00000000 ( 0000001C )
    -------------------------------------------------------------------------
<CODE> 1 (was CODE)
  Relative segment, address: 543C - 545D (0x22 bytes), align: 1
  Segment part 216.           Intra module refs:   LoggerInit
           ENTRY                   ADDRESS         REF BY
           =====                   =======         ======
           EEToStateA2             543C 
               calls direct
               CSTACK = 00000000 ( 00000014 )
    -------------------------------------------------------------------------
<CODE> 1 (was CODE)
  Relative segment, address: 545E - 5463 (0x6 bytes), align: 1
  Segment part 217.           Intra module refs:   EEToStateA2
                                                   StateA2ToEE
           LOCAL                   ADDRESS         
           =====                   =======         
           ?Subroutine5            545E 
    -------------------------------------------------------------------------
<CODE> 1 (was CODE)
  Relative segment, address: 5464 - 5485 (0x22 bytes), align: 1
  Segment part 218.           Intra module refs:   LoggerInit
           ENTRY                   ADDRESS         REF BY
           =====                   =======         ======
           EEToStateA1             5464 
               calls direct
               CSTACK = 00000000 ( 00000008 )
    -------------------------------------------------------------------------
<CODE> 1 (was CODE)
  Relative segment, address: 5486 - 548B (0x6 bytes), align: 1
  Segment part 219.           Intra module refs:   EEToStateA1
                                                   StateA1ToEE
           LOCAL                   ADDRESS         
           =====                   =======         
           ?Subroutine6            5486 
    -------------------------------------------------------------------------
<CODE> 1 (was CODE)
  Relative segment, address: 548C - 54E7 (0x5c bytes), align: 1
  Segment part 220.           Intra module refs:   LoggerConfigFirst
           ENTRY                   ADDRESS         REF BY
           =====                   =======         ======
           StateA2ToEE             548C            SetReStart (uart_pc)
                                                   SetStateB (uart_pc)
               calls direct
               CSTACK = 00000000 ( 00000014 )
    -------------------------------------------------------------------------
<CODE> 1 (was CODE)
  Relative segment, address: 54E8 - 54F1 (0xa bytes), align: 1
  Segment part 221.           Intra module refs:   StateA2ToEE
                                                   StateBToEE
           LOCAL                   ADDRESS         
           =====                   =======         
           ?Subroutine46           54E8 
    -------------------------------------------------------------------------
<CODE> 1 (was CODE)
  Relative segment, address: 54F2 - 5539 (0x48 bytes), align: 1
  Segment part 223.           Intra module refs:   LoggerConfigFirst
           ENTRY                   ADDRESS         REF BY
           =====                   =======         ======
           StateA1ToEE             54F2            ReadLink (uart_pc)
                                                   SetReStart (uart_pc)
               calls direct
               CSTACK = 00000000 ( 00000008 )
    -------------------------------------------------------------------------
<CODE> 1 (was CODE)
  Relative segment, address: 553A - 5597 (0x5e bytes), align: 1
  Segment part 227.
           ENTRY                   ADDRESS         REF BY
           =====                   =======         ======
           CurveFlashToBuf         553A            AdcToValue (adc)
                                                   ReadCurve (uart_pc)
               CSTACK = 00000000 ( 00000008 )
    -------------------------------------------------------------------------
<CODE> 1 (was CODE)
  Relative segment, address: 5598 - 564B (0xb4 bytes), align: 1
  Segment part 228.           Intra module refs:   LoggerConfigFirst
           ENTRY                   ADDRESS         REF BY
           =====                   =======         ======
           CurveBufToFlash         5598            SetCurve (uart_pc)
               CSTACK = 00000000 ( 0000020A )
    -------------------------------------------------------------------------
<CODE> 1 (was CODE)
  Relative segment, address: 564C - 565D (0x12 bytes), align: 1
  Segment part 229.           Intra module refs:   ChAEnToFlash
                                                   CurveBufToFlash
                                                   alarm_buf_to_flash
           LOCAL                   ADDRESS         
           =====                   =======         
           ?Subroutine36           564C 
    -------------------------------------------------------------------------
<CODE> 1 (was CODE)
  Relative segment, address: 565E - 5747 (0xea bytes), align: 1
  Segment part 230.           Intra module refs:   LoggerConfigFirst
           ENTRY                   ADDRESS         REF BY
           =====                   =======         ======
           channel_to_flash_fisrt
                                   565E 
               CSTACK = 00000000 ( 00000204 )
    -------------------------------------------------------------------------
<CODE> 1 (was CODE)
  Relative segment, address: 5748 - 576B (0x24 bytes), align: 1
  Segment part 231.           Intra module refs:   ?Subroutine36
                                                   channel_to_flash_fisrt
           LOCAL                   ADDRESS         
           =====                   =======         
           ?Subroutine58           5748 
    -------------------------------------------------------------------------
<CODE> 1 (was CODE)
  Relative segment, address: 576C - 577B (0x10 bytes), align: 1
  Segment part 232.           Intra module refs:   ?Subroutine7
                                                   CurveBufToFlash
                                                   channel_to_flash_fisrt
           LOCAL                   ADDRESS         
           =====                   =======         
           ?Subroutine48           576C 
    -------------------------------------------------------------------------
<CODE> 1 (was CODE)
  Relative segment, address: 577C - 5781 (0x6 bytes), align: 1
  Segment part 233.           Intra module refs:   channel_to_flash_fisrt
           LOCAL                   ADDRESS         
           =====                   =======         
           ?Subroutine33           577C 
    -------------------------------------------------------------------------
<CODE> 1 (was CODE)
  Relative segment, address: 5782 - 578B (0xa bytes), align: 1
  Segment part 234.           Intra module refs:   ?Subroutine33
                                                   channel_to_flash_fisrt
           LOCAL                   ADDRESS         
           =====                   =======         
           ?Subroutine57           5782 
    -------------------------------------------------------------------------
<CODE> 1 (was CODE)
  Relative segment, address: 578C - 57F7 (0x6c bytes), align: 1
  Segment part 235.
           ENTRY                   ADDRESS         REF BY
           =====                   =======         ======
           ChAEnToFlash            578C            KeyAlarm (key)
                                                   SmsRecDeel (gsm)
               CSTACK = 00000000 ( 00000208 )
    -------------------------------------------------------------------------
<CODE> 1 (was CODE)
  Relative segment, address: 57F8 - 5803 (0xc bytes), align: 1
  Segment part 236.           Intra module refs:   ChAEnToFlash
                                                   alarm_buf_to_flash
           LOCAL                   ADDRESS         
           =====                   =======         
           ?Subroutine7            57F8 
    -------------------------------------------------------------------------
<CODE> 1 (was CODE)
  Relative segment, address: 5804 - 580F (0xc bytes), align: 1
  Segment part 237.           Intra module refs:   LoggerConfigFirst
           ENTRY                   ADDRESS         REF BY
           =====                   =======         ======
           curve_shift             5804 
               CSTACK = 00000000 ( 00000002 )
    -------------------------------------------------------------------------
<CODE> 1 (was CODE)
  Relative segment, address: 5810 - 5843 (0x34 bytes), align: 1
  Segment part 238.           Intra module refs:   PCBSQ_RecClr
                                                   PCBSQ_RecOne
           ENTRY                   ADDRESS         REF BY
           =====                   =======         ======
           PCBSQ_RecNumPt_ToEE     5810 
               calls direct
               CSTACK = 00000000 ( 00000004 )
    -------------------------------------------------------------------------
<CODE> 1 (was CODE)
  Relative segment, address: 5844 - 584F (0xc bytes), align: 1
  Segment part 239.           Intra module refs:   LoggerConfigFirst
           ENTRY                   ADDRESS         REF BY
           =====                   =======         ======
           PCBSQ_RecClr            5844            SetReStart (uart_pc)
               calls direct
               CSTACK = 00000000 ( 00000002 )
    -------------------------------------------------------------------------
<CODE> 1 (was CODE)
  Relative segment, address: 5850 - 5965 (0x116 bytes), align: 1
  Segment part 240.           Intra module refs:   LoggerInit
           ENTRY                   ADDRESS         REF BY
           =====                   =======         ======
           LoggerConfigFirst       5850            SetFactorySetting (uart_pc)
               calls direct
               CSTACK = 00000000 ( 00000076 )
    -------------------------------------------------------------------------
<CODE> 1 (was CODE)
  Relative segment, address: 5966 - 596B (0x6 bytes), align: 1
  Segment part 241.           Intra module refs:   GetSmsTitleUni
                                                   GprsUpSend
                                                   LoggerCalculateValue
                                                   LoggerConfigFirst
                                                   PCBSQ_FromEE
           LOCAL                   ADDRESS         
           =====                   =======         
           ?Subroutine4            5966 
    -------------------------------------------------------------------------
<CODE> 1 (was CODE)
  Relative segment, address: 596C - 59AB (0x40 bytes), align: 1
  Segment part 242.           Intra module refs:   bsq_init
           ENTRY                   ADDRESS         REF BY
           =====                   =======         ======
           PCBSQ_FromEE            596C 
               calls direct
               CSTACK = 00000000 ( 0000000E )
    -------------------------------------------------------------------------
<CODE> 1 (was CODE)
  Relative segment, address: 59AC - 59BF (0x14 bytes), align: 1
  Segment part 243.           Intra module refs:   bsq_init
           ENTRY                   ADDRESS         REF BY
           =====                   =======         ======
           bsq_allwaysSet          59AC 
               CSTACK = 00000000 ( 00000002 )
    -------------------------------------------------------------------------
<CODE> 1 (was CODE)
  Relative segment, address: 59C0 - 59CB (0xc bytes), align: 1
  Segment part 244.           Intra module refs:   LoggerInit
           ENTRY                   ADDRESS         REF BY
           =====                   =======         ======
           bsq_init                59C0 
               calls direct
               CSTACK = 00000000 ( 00000002 )
    -------------------------------------------------------------------------
<CODE> 1 (was CODE)
  Relative segment, address: 59CC - 59CD (0x2 bytes), align: 1
  Segment part 245.
           ENTRY                   ADDRESS         REF BY
           =====                   =======         ======
           LcdMode                 59CC            ?Subroutine2 (uart_pc)
                                                   LcdChNoDeel (lcd)
                                                   ReadGprsInfo (uart_pc)
                                                   SetAlarm (uart_pc)
               CSTACK = 00000000 ( 00000002 )
    -------------------------------------------------------------------------
<CODE> 1 (was CODE)
  Relative segment, address: 59CE - 59F3 (0x26 bytes), align: 1
  Segment part 246.           Intra module refs:   HaveALEnable
           ENTRY                   ADDRESS         REF BY
           =====                   =======         ======
           ChALEnable              59CE            ?Subroutine35 (gsm)
               CSTACK = 00000000 ( 00000002 )
    -------------------------------------------------------------------------
<CODE> 1 (was CODE)
  Relative segment, address: 59F4 - 5A0D (0x1a bytes), align: 1
  Segment part 247.           Intra module refs:   LcdAlarmEn
                                                   LoggerAlarmDeel
           ENTRY                   ADDRESS         REF BY
           =====                   =======         ======
           HaveALEnable            59F4            KeyAlarm (key)
                                                   SmsPowDeel (gsm)
                                                   SmsPowOneOk (gsm)
                                                   SmsPowStart (gsm)
               calls direct
               CSTACK = 00000000 ( 00000002 )
    -------------------------------------------------------------------------
<CODE> 1 (was CODE)
  Relative segment, address: 5A0E - 5A21 (0x14 bytes), align: 1
  Segment part 248.           Intra module refs:   LoggerInit
           ENTRY                   ADDRESS         REF BY
           =====                   =======         ======
           LcdAlarmEn              5A0E            LcdChNoDeel (lcd)
                                                   SetAlarm (uart_pc)
                                                   SetStateB (uart_pc)
               calls direct
               CSTACK = 00000000 ( 00000002 )
    -------------------------------------------------------------------------
<CODE> 1 (was CODE)
  Relative segment, address: 5A22 - 5A71 (0x50 bytes), align: 1
  Segment part 249.           Intra module refs:   LoggerInit
           ENTRY                   ADDRESS         REF BY
           =====                   =======         ======
           PCBSQ_CapToEE           5A22 
               calls direct
               CSTACK = 00000000 ( 00000006 )
    -------------------------------------------------------------------------
<CODE> 1 (was CODE)
  Relative segment, address: 5A72 - 5B95 (0x124 bytes), align: 1
  Segment part 250.
           ENTRY                   ADDRESS         REF BY
           =====                   =======         ======
           LoggerInit              5A72            main (main)
               calls direct
               CSTACK = 00000000 ( 0000000E )
    -------------------------------------------------------------------------
<CODE> 1 (was CODE)
  Relative segment, address: 5B96 - 5B9F (0xa bytes), align: 1
  Segment part 251.           Intra module refs:   LoggerCalculateValue
                                                   LoggerConfigFirst
                                                   LoggerInit
           LOCAL                   ADDRESS         
           =====                   =======         
           ?Subroutine49           5B96 
    -------------------------------------------------------------------------
<CODE> 1 (was CODE)
  Relative segment, address: 5BA0 - 5BAD (0xe bytes), align: 1
  Segment part 252.           Intra module refs:   LoggerInit
                                                   RestartClr
           LOCAL                   ADDRESS         
           =====                   =======         
           ?Subroutine47           5BA0 
    -------------------------------------------------------------------------
<CODE> 1 (was CODE)
  Relative segment, address: 5BAE - 5BBB (0xe bytes), align: 1
  Segment part 253.           Intra module refs:   LoggerInit
                                                   PCBSQ_Record
                                                   ServerCmdSet
           LOCAL                   ADDRESS         
           =====                   =======         
           ?Subroutine41           5BAE 
    -------------------------------------------------------------------------
<CODE> 1 (was CODE)
  Relative segment, address: 5BBC - 5C53 (0x98 bytes), align: 1
  Segment part 254.
           ENTRY                   ADDRESS         REF BY
           =====                   =======         ======
           LoggerExtInt            5BBC            main (main)
               calls direct
               CSTACK = 00000000 ( 00000002 )
    -------------------------------------------------------------------------
<CODE> 1 (was CODE)
  Relative segment, address: 5C54 - 5C91 (0x3e bytes), align: 1
  Segment part 255.           Intra module refs:   LoggerCalculateValue
           ENTRY                   ADDRESS         REF BY
           =====                   =======         ======
           LoggerRecOne            5C54 
               CSTACK = 00000000 ( 00000002 )
    -------------------------------------------------------------------------
<CODE> 1 (was CODE)
  Relative segment, address: 5C92 - 5D17 (0x86 bytes), align: 1
  Segment part 257.           Intra module refs:   SampleRealDo
           ENTRY                   ADDRESS         REF BY
           =====                   =======         ======
           LoggerSample            5C92 
               calls direct
               CSTACK = 00000000 ( 00000002 )
    -------------------------------------------------------------------------
<CODE> 1 (was CODE)
  Relative segment, address: 5D18 - 5D1F (0x8 bytes), align: 1
  Segment part 258.           Intra module refs:   LoggerAlarmAllSeek
                                                   LoggerRecOne
                                                   LoggerSample
           LOCAL                   ADDRESS         
           =====                   =======         
           ?Subroutine44           5D18 
    -------------------------------------------------------------------------
<CODE> 1 (was CODE)
  Relative segment, address: 5D20 - 5E4B (0x12c bytes), align: 1
  Segment part 259.           Intra module refs:   LoggerAlarmAllSeek
           ENTRY                   ADDRESS         REF BY
           =====                   =======         ======
           LoggerAlarmOneSeek      5D20 
               CSTACK = 00000000 ( 00000010 )
    -------------------------------------------------------------------------
<CODE> 1 (was CODE)
  Relative segment, address: 5E4C - 5E63 (0x18 bytes), align: 1
  Segment part 260.           Intra module refs:   PCBSQ_Record
                                                   SampleRealDo
           ENTRY                   ADDRESS         REF BY
           =====                   =======         ======
           LoggerAlarmAllSeek      5E4C            KeyAlarm (key)
                                                   SetAlarm (uart_pc)
               calls direct
               CSTACK = 00000000 ( 00000004 )
    -------------------------------------------------------------------------
<CODE> 1 (was CODE)
  Relative segment, address: 5E64 - 5F4D (0xea bytes), align: 1
  Segment part 261.           Intra module refs:   LoggerCalculateValue
           ENTRY                   ADDRESS         REF BY
           =====                   =======         ======
           GetHumiValue            5E64 
               calls direct
               CSTACK = 00000000 ( 0000000E )
    -------------------------------------------------------------------------
<CODE> 1 (was CODE)
  Relative segment, address: 5F4E - 5F63 (0x16 bytes), align: 1
  Segment part 262.           Intra module refs:   GetHumiValue
                                                   TCP_LG31_Send_Head
           LOCAL                   ADDRESS         
           =====                   =======         
           ?Subroutine21           5F4E 
    -------------------------------------------------------------------------
<CODE> 1 (was CODE)
  Relative segment, address: 5F64 - 5F6B (0x8 bytes), align: 1
  Segment part 263.           Intra module refs:   GetHumiValue
           LOCAL                   ADDRESS         
           =====                   =======         
           ?Subroutine20           5F64 
    -------------------------------------------------------------------------
<CODE> 1 (was CODE)
  Relative segment, address: 5F6C - 6015 (0xaa bytes), align: 1
  Segment part 264.           Intra module refs:   LoggerCalculateValue
           ENTRY                   ADDRESS         REF BY
           =====                   =======         ======
           GetChFilterAd           5F6C 
               calls direct
               CSTACK = 00000000 ( 00000020 )
    -------------------------------------------------------------------------
<CODE> 1 (was CODE)
  Relative segment, address: 6016 - 60ED (0xd8 bytes), align: 1
  Segment part 265.           Intra module refs:   SampleRealDo
           ENTRY                   ADDRESS         REF BY
           =====                   =======         ======
           LoggerCalculateValue    6016 
               calls direct
               CSTACK = 00000000 ( 00000006 )
    -------------------------------------------------------------------------
<CODE> 1 (was CODE)
  Relative segment, address: 60EE - 613F (0x52 bytes), align: 1
  Segment part 266.           Intra module refs:   SampleRecordDeel
           ENTRY                   ADDRESS         REF BY
           =====                   =======         ======
           SampleRealDo            60EE 
               calls direct
               CSTACK = 00000000 ( 00000004 )
    -------------------------------------------------------------------------
<CODE> 1 (was CODE)
  Relative segment, address: 6140 - 6163 (0x24 bytes), align: 1
  Segment part 267.           Intra module refs:   LoggerWorkDeel
           ENTRY                   ADDRESS         REF BY
           =====                   =======         ======
           SampleRecordDeel        6140 
               calls direct
               CSTACK = 00000000 ( 00000002 )
    -------------------------------------------------------------------------
<CODE> 1 (was CODE)
  Relative segment, address: 6164 - 62C3 (0x160 bytes), align: 1
  Segment part 268.           Intra module refs:   PCBSQ_Record
           ENTRY                   ADDRESS         REF BY
           =====                   =======         ======
           PCBSQ_RecOne            6164            KeyDecDeel (key)
                                                   PowInDeel (gsm)
               calls direct
               CSTACK = 00000000 ( 0000002C )
    -------------------------------------------------------------------------
<CODE> 1 (was CODE)
  Relative segment, address: 62C4 - 62C9 (0x6 bytes), align: 1
  Segment part 269.           Intra module refs:   LoggerAlarmOneSeek
                                                   PCBSQ_RecOne
           LOCAL                   ADDRESS         
           =====                   =======         
           ?Subroutine31           62C4 
    -------------------------------------------------------------------------
<CODE> 1 (was CODE)
  Relative segment, address: 62CA - 62D1 (0x8 bytes), align: 1
  Segment part 270.           Intra module refs:   ?Subroutine31
                                                   GetHumiValue
                                                   GetSmsUni
                                                   Segment part 274
           LOCAL                   ADDRESS         
           =====                   =======         
           ?Subroutine62           62CA 
    -------------------------------------------------------------------------
<CODE> 1 (was CODE)
  Relative segment, address: 62D2 - 62DD (0xc bytes), align: 1
  Segment part 271.           Intra module refs:   ?Subroutine17
                                                   PCBSQ_RecOne
           LOCAL                   ADDRESS         
           =====                   =======         
           ?Subroutine56           62D2 
    -------------------------------------------------------------------------
<CODE> 1 (was CODE)
  Relative segment, address: 62DE - 62F7 (0x1a bytes), align: 1
  Segment part 272.           Intra module refs:   PCBSQ_Record
           ENTRY                   ADDRESS         REF BY
           =====                   =======         ======
           RecAlarm                62DE 
               CSTACK = 00000000 ( 00000002 )
    -------------------------------------------------------------------------
<CODE> 1 (was CODE)
  Relative segment, address: 62F8 - 62FB (0x4 bytes), align: 1
  Segment part 273.           Intra module refs:   ChAlarm
                                                   LoggerAlarmOneSeek
           LOCAL                   ADDRESS         
           =====                   =======         
           ?Subroutine34           62F8 
    -------------------------------------------------------------------------
<CODE> 1 (was CODE)
  Relative segment, address: 62FC - 62FF (0x4 bytes), align: 1
  Segment part 274.           Intra module refs:   ?Subroutine34
                                                   RecAlarm
    -------------------------------------------------------------------------
<CODE> 1 (was CODE)
  Relative segment, address: 6300 - 63EB (0xec bytes), align: 1
  Segment part 275.           Intra module refs:   LoggerLoop
           ENTRY                   ADDRESS         REF BY
           =====                   =======         ======
           PCBSQ_Record            6300 
               calls direct
               CSTACK = 00000000 ( 0000000A )
    -------------------------------------------------------------------------
<CODE> 1 (was CODE)
  Relative segment, address: 63EC - 63F3 (0x8 bytes), align: 1
  Segment part 276.           Intra module refs:   PCBSQ_Record
           LOCAL                   ADDRESS         
           =====                   =======         
           ?Subroutine2            63EC 
    -------------------------------------------------------------------------
<CODE> 1 (was CODE)
  Relative segment, address: 63F4 - 6475 (0x82 bytes), align: 1
  Segment part 277.           Intra module refs:   LoggerInit
                                                   PCBSQ_Record
           LOCAL                   ADDRESS         
           =====                   =======         
           ?Subroutine43           63F4 
    -------------------------------------------------------------------------
<CODE> 1 (was CODE)
  Relative segment, address: 6476 - 6479 (0x4 bytes), align: 1
  Segment part 278.           Intra module refs:   PCBSQ_Record
                                                   TCP_LG31_Send_Head
           LOCAL                   ADDRESS         
           =====                   =======         
           ?Subroutine22           6476 
    -------------------------------------------------------------------------
<CODE> 1 (was CODE)
  Relative segment, address: 647A - 647F (0x6 bytes), align: 1
  Segment part 279.           Intra module refs:   ?Subroutine22
                                                   GetBatt
                                                   LoggerInit
                                                   PCBSQ_Record
    -------------------------------------------------------------------------
<CODE> 1 (was CODE)
  Relative segment, address: 6480 - 64BB (0x3c bytes), align: 1
  Segment part 298.           Intra module refs:   TimeDecDeel
           ENTRY                   ADDRESS         REF BY
           =====                   =======         ======
           DownTimeOver            6480 
               calls direct
               CSTACK = 00000000 ( 00000002 )
    -------------------------------------------------------------------------
<CODE> 1 (was CODE)
  Relative segment, address: C6DE - C6EB (0xe bytes), align: 1
  Segment part 299.           Intra module refs:   DownTimeOver
           LOCAL                   ADDRESS         
           =====                   =======         
           ?Subroutine50           C6DE 
    -------------------------------------------------------------------------
<CODE> 1 (was CODE)
  Relative segment, address: AFFE - B0BD (0xc0 bytes), align: 1
  Segment part 291.
           ENTRY                   ADDRESS         REF BY
           =====                   =======         ======
           AlarmXSeek              AFFE            Buf_To_Print (print)
               CSTACK = 00000000 ( 0000000C )
    -------------------------------------------------------------------------
<CODE> 1 (was CODE)
  Relative segment, address: C3BE - C3D7 (0x1a bytes), align: 1
  Segment part 292.           Intra module refs:   AlarmXSeek
                                                   CurveFlashToBuf
           LOCAL                   ADDRESS         
           =====                   =======         
           ?Subroutine39           C3BE 
    -------------------------------------------------------------------------
<CODE> 1 (was CODE)
  Relative segment, address: C46A - C47F (0x16 bytes), align: 1
  Segment part 286.           Intra module refs:   LoggerAlarmDeel
           ENTRY                   ADDRESS         REF BY
           =====                   =======         ======
           ChAlarm                 C46A 
               CSTACK = 00000000 ( 00000002 )
    -------------------------------------------------------------------------
<CODE> 1 (was CODE)
  Relative segment, address: C43E - C453 (0x16 bytes), align: 1
  Segment part 290.
           ENTRY                   ADDRESS         REF BY
           =====                   =======         ======
           SeeChAlarm              C43E            LcdChNoDeel (lcd)
               CSTACK = 00000000 ( 00000002 )
    -------------------------------------------------------------------------
<CODE> 1 (was CODE)
  Relative segment, address: C3F2 - C40B (0x1a bytes), align: 1
  Segment part 288.           Intra module refs:   LoggerWorkDeel
           ENTRY                   ADDRESS         REF BY
           =====                   =======         ======
           LoggerLcdDeel           C3F2 
               calls direct
               CSTACK = 00000000 ( 00000002 )
    -------------------------------------------------------------------------
<CODE> 1 (was CODE)
  Relative segment, address: BF26, align: 1
  Segment part 283.           Intra module refs:   LoggerAlarmDeel
           ENTRY                   ADDRESS         REF BY
           =====                   =======         ======
           Bell_Off                BF26            KeyDecDeel (key)
               CSTACK = 00000000 ( 00000002 )
    -------------------------------------------------------------------------
<CODE> 1 (was CODE)
  Relative segment, address: BF26 - BF39 (0x14 bytes), align: 1
  Segment part 284.           Intra module refs:   ?Subroutine43
                                                   Bell_Off
                                                   Bell_Shan
           LOCAL                   ADDRESS         
           =====                   =======         
           ?Subroutine59           BF26 
    -------------------------------------------------------------------------
<CODE> 1 (was CODE)
  Relative segment, address: BF3A - BF5D (0x24 bytes), align: 1
  Segment part 285.           Intra module refs:   LoggerAlarmDeel
           ENTRY                   ADDRESS         REF BY
           =====                   =======         ======
           Bell_Shan               BF3A 
               CSTACK = 00000000 ( 00000002 )
    -------------------------------------------------------------------------
<CODE> 1 (was CODE)
  Relative segment, address: C2B4 - C2D7 (0x24 bytes), align: 1
  Segment part 287.           Intra module refs:   LoggerWorkDeel
           ENTRY                   ADDRESS         REF BY
           =====                   =======         ======
           LoggerAlarmDeel         C2B4 
               calls direct
               CSTACK = 00000000 ( 00000002 )
    -------------------------------------------------------------------------
<CODE> 1 (was CODE)
  Relative segment, address: B82A - B889 (0x60 bytes), align: 1
  Segment part 282.
           ENTRY                   ADDRESS         REF BY
           =====                   =======         ======
           PCBSQ_RecTime_ToEE      B82A            SetGprsInfo (uart_pc)
               calls direct
               CSTACK = 00000000 ( 0000000A )
    -------------------------------------------------------------------------
<CODE> 1 (was CODE)
  Relative segment, address: C1F8 - C21F (0x28 bytes), align: 1
  Segment part 281.           Intra module refs:   PCBSQ_FromEE
           LOCAL                   ADDRESS         
           =====                   =======         
           ?Subroutine12           C1F8 

    *************************************************************************

  FILE NAME : E:\zz-cc\c0708\0708-141\Project\Debug\Obj\main.r43
  PROGRAM MODULE, NAME : main

  SEGMENTS IN THE MODULE
  ======================
DATA16_AN
  Relative segment, address: 0056 - 0056 (0x1 bytes), align: 0
  Segment part 5. ROOT.       Intra module refs:   McuInit
           ENTRY                   ADDRESS         REF BY
           =====                   =======         ======
           DCOCTL                  0056 
    -------------------------------------------------------------------------
DATA16_AN
  Relative segment, address: 0057 - 0057 (0x1 bytes), align: 0
  Segment part 6. ROOT.       Intra module refs:   McuInit
           ENTRY                   ADDRESS         REF BY
           =====                   =======         ======
           BCSCTL1                 0057 
    -------------------------------------------------------------------------
DATA16_AN
  Relative segment, address: 001F - 001F (0x1 bytes), align: 0
  Segment part 19. ROOT.      Intra module refs:   McuInit
           ENTRY                   ADDRESS         REF BY
           =====                   =======         ======
           P4SEL                   001F 
    -------------------------------------------------------------------------
DATA16_AN
  Relative segment, address: 0033 - 0033 (0x1 bytes), align: 0
  Segment part 22. ROOT.      Intra module refs:   McuInit
           ENTRY                   ADDRESS         REF BY
           =====                   =======         ======
           P5SEL                   0033 
    -------------------------------------------------------------------------
DATA16_AN
  Relative segment, address: 0035 - 0035 (0x1 bytes), align: 0
  Segment part 23. ROOT.      Intra module refs:   McuInit
           ENTRY                   ADDRESS         REF BY
           =====                   =======         ======
           P6OUT                   0035 
    -------------------------------------------------------------------------
DATA16_AN
  Relative segment, address: 0055 - 0055 (0x1 bytes), align: 0
  Segment part 26. ROOT.      Intra module refs:   McuInit
           ENTRY                   ADDRESS         REF BY
           =====                   =======         ======
           SVSCTL                  0055 
    -------------------------------------------------------------------------
DATA16_AN
  Relative segment, address: 0188 - 0189 (0x2 bytes), align: 0
  Segment part 31. ROOT.      Intra module refs:   main
           ENTRY                   ADDRESS         REF BY
           =====                   =======         ======
           TBCCTL3                 0188 
    -------------------------------------------------------------------------
DATA16_AN
  Relative segment, address: 0061 - 0061 (0x1 bytes), align: 0
  Segment part 35. ROOT.      Intra module refs:   U0Init
           ENTRY                   ADDRESS         REF BY
           =====                   =======         ======
           UCA0CTL1                0061 
    -------------------------------------------------------------------------
DATA16_AN
  Relative segment, address: 0062 - 0062 (0x1 bytes), align: 0
  Segment part 36. ROOT.      Intra module refs:   U0Init
           ENTRY                   ADDRESS         REF BY
           =====                   =======         ======
           UCA0BR0                 0062 
    -------------------------------------------------------------------------
DATA16_AN
  Relative segment, address: 0063 - 0063 (0x1 bytes), align: 0
  Segment part 37. ROOT.      Intra module refs:   U0Init
           ENTRY                   ADDRESS         REF BY
           =====                   =======         ======
           UCA0BR1                 0063 
    -------------------------------------------------------------------------
DATA16_AN
  Relative segment, address: 0064 - 0064 (0x1 bytes), align: 0
  Segment part 38. ROOT.      Intra module refs:   U0Init
           ENTRY                   ADDRESS         REF BY
           =====                   =======         ======
           UCA0MCTL                0064 
    -------------------------------------------------------------------------
DATA16_AN
  Relative segment, address: 0067 - 0067 (0x1 bytes), align: 0
  Segment part 39. ROOT.      Intra module refs:   U0SendByte
           ENTRY                   ADDRESS         REF BY
           =====                   =======         ======
           UCA0TXBUF               0067 
    -------------------------------------------------------------------------
DATA16_AN
  Relative segment, address: 00D1 - 00D1 (0x1 bytes), align: 0
  Segment part 40. ROOT.      Intra module refs:   U1Init
           ENTRY                   ADDRESS         REF BY
           =====                   =======         ======
           UCA1CTL1                00D1 
    -------------------------------------------------------------------------
DATA16_AN
  Relative segment, address: 00D2 - 00D2 (0x1 bytes), align: 0
  Segment part 41. ROOT.      Intra module refs:   U1Init
           ENTRY                   ADDRESS         REF BY
           =====                   =======         ======
           UCA1BR0                 00D2 
    -------------------------------------------------------------------------
DATA16_AN
  Relative segment, address: 00D3 - 00D3 (0x1 bytes), align: 0
  Segment part 42. ROOT.      Intra module refs:   U1Init
           ENTRY                   ADDRESS         REF BY
           =====                   =======         ======
           UCA1BR1                 00D3 
    -------------------------------------------------------------------------
DATA16_AN
  Relative segment, address: 00D4 - 00D4 (0x1 bytes), align: 0
  Segment part 43. ROOT.      Intra module refs:   U1Init
           ENTRY                   ADDRESS         REF BY
           =====                   =======         ======
           UCA1MCTL                00D4 
    -------------------------------------------------------------------------
DATA16_AN
  Relative segment, address: 00D7 - 00D7 (0x1 bytes), align: 0
  Segment part 44. ROOT.      Intra module refs:   U1SendByte
           ENTRY                   ADDRESS         REF BY
           =====                   =======         ======
           UCA1TXBUF               00D7 
    -------------------------------------------------------------------------
DATA16_AN
  Relative segment, address: 10FC - 10FC (0x1 bytes), align: 0
  Segment part 46. ROOT.      Intra module refs:   McuInit
           ENTRY                   ADDRESS         REF BY
           =====                   =======         ======
           CALDCO_8MHZ             10FC 
    -------------------------------------------------------------------------
DATA16_AN
  Relative segment, address: 10FD - 10FD (0x1 bytes), align: 0
  Segment part 47. ROOT.      Intra module refs:   McuInit
           ENTRY                   ADDRESS         REF BY
           =====                   =======         ======
           CALBC1_8MHZ             10FD 
    -------------------------------------------------------------------------
DATA16_Z
  Relative segment, address: 1156 - 116F (0x1a bytes), align: 1
  Segment part 49.            Intra module refs:   main
           ENTRY                   ADDRESS         REF BY
           =====                   =======         ======
           Download                1156            ?Subroutine50 (logger)
                                                   CmdHexDeel (uart_pc)
                                                   CmdHexDownPag (uart_pc)
                                                   ComDeel (uart_pc)
                                                   DownTimeOver (logger)
                                                   GsmLoop (gsm)
                                                   GsmOnErrDeel (gsm)
                                                   Read_GPRS_DATA_Bag (uart_pc)
                                                   Read_GPRS_DATA_Infor (uart_pc)
                                                   TimeDecDeel (logger)
    -------------------------------------------------------------------------
DATA16_Z
  Relative segment, address: 1170 - 1175 (0x6 bytes), align: 1
  Segment part 50.
           ENTRY                   ADDRESS         REF BY
           =====                   =======         ======
           StateA1                 1170            ?Subroutine49 (logger)
                                                   EEToStateA1 (logger)
                                                   LoggerCalculateValue (logger)
                                                   LoggerConfigFirst (logger)
                                                   SetReStart (uart_pc)
                                                   StateA1ToEE (logger)
    -------------------------------------------------------------------------
DATA16_Z
  Relative segment, address: 1176 - 1187 (0x12 bytes), align: 1
  Segment part 51.
           ENTRY                   ADDRESS         REF BY
           =====                   =======         ======
           StateA2                 1176            EEToStateA2 (logger)
                                                   LoggerConfigFirst (logger)
                                                   LoggerInit (logger)
                                                   LoggerWorkDeel (logger)
                                                   PCBSQ_Record (logger)
                                                   ReadLink (uart_pc)
                                                   SetReStart (uart_pc)
                                                   SetStateB (uart_pc)
                                                   SmsKeyOff (gsm)
                                                   SmsKeyOn (gsm)
                                                   StateA2ToEE (logger)
                                                   TimeDecDeel (logger)
                                                   bsq_allwaysSet (logger)
                                                   bsq_init (logger)
    -------------------------------------------------------------------------
DATA16_Z
  Relative segment, address: 1188 - 119F (0x18 bytes), align: 1
  Segment part 52.
           ENTRY                   ADDRESS         REF BY
           =====                   =======         ======
           StateB                  1188            CmdSendStart (uart_pc)
                                                   EEToStateB (logger)
                                                   LoggerConfigFirst (logger)
                                                   LoggerInit (logger)
                                                   ReadLink (uart_pc)
                                                   SampleRealDo (logger)
                                                   SampleRecordDeel (logger)
                                                   SetAddress (uart_pc)
                                                   SetReStart (uart_pc)
                                                   SetStateB (uart_pc)
                                                   StateBToEE (logger)
                                                   USCI1RX_ISR (it)
                                                   bsq_allwaysSet (logger)
    -------------------------------------------------------------------------
DATA16_Z
  Relative segment, address: 11A0 - 1311 (0x172 bytes), align: 1
  Segment part 53.
           ENTRY                   ADDRESS         REF BY
           =====                   =======         ======
           StateC                  11A0            ?Subroutine31 (logger)
                                                   ?Subroutine36 (lcd)
                                                   ?Subroutine56 (logger)
                                                   ADC12ISR (it)
                                                   AdcToValue (adc)
                                                   EE_Read_One (logger)
                                                   FilterChClr (logger)
                                                   GetBatt (logger)
                                                   GetChFilterAd (logger)
                                                   GetHumiValue (logger)
                                                   GetSmsUni (logger)
                                                   LcdChNoDeel (lcd)
                                                   LoggerAlarmOneSeek (logger)
                                                   LoggerCalculateValue (logger)
                                                   LoggerInit (logger)
                                                   LoggerRecOne (logger)
                                                   LoggerSample (logger)
                                                   PCBSQ_CapToEE (logger)
                                                   PCBSQ_RecOne (logger)
                                                   ReadAdc (uart_pc)
                                                   ReadLink (uart_pc)
                                                   ReadRealValue (uart_pc)
                                                   SmsAlarmStart (gsm)
    -------------------------------------------------------------------------
DATA16_Z
  Relative segment, address: 1312 - 1443 (0x132 bytes), align: 1
  Segment part 54.            Intra module refs:   U1_RecErr
           ENTRY                   ADDRESS         REF BY
           =====                   =======         ======
           Uart_1                  1312            ?Subroutine13 (uart_pc)
                                                   ?Subroutine15 (uart_pc)
                                                   ?Subroutine17 (uart_pc)
                                                   CmdHexDeel (uart_pc)
                                                   CmdHexDownPag (uart_pc)
                                                   ComDeel (uart_pc)
                                                   ReadCurve (uart_pc)
                                                   Read_GPRS_DATA_Bag (uart_pc)
                                                   SetAdcMode (uart_pc)
                                                   SetAddress (uart_pc)
                                                   SetAlarm (uart_pc)
                                                   SetCurve (uart_pc)
                                                   SetGprsInfo (uart_pc)
                                                   SetGsmMontior (uart_pc)
                                                   SetModelSerialNum (uart_pc)
                                                   SetPhone (uart_pc)
                                                   SetReStart (uart_pc)
                                                   SetRtc (uart_pc)
                                                   SetStateB (uart_pc)
                                                   U0PduAnalyze (gsm)
                                                   USCI1RX_ISR (it)
    -------------------------------------------------------------------------
DATA16_Z
  Relative segment, address: 1444 - 1459 (0x16 bytes), align: 1
  Segment part 55.            Intra module refs:   U1SendStrPC
                                                   U1_RecErr
           ENTRY                   ADDRESS         REF BY
           =====                   =======         ======
           Flag                    1444            ?Subroutine17 (gsm)
                                                   ?Subroutine34 (logger)
                                                   ?Subroutine53 (lcd)
                                                   ADC12ISR (it)
                                                   Bell_Shan (logger)
                                                   ComDeel (uart_pc)
                                                   CsqDeel (gsm)
                                                   GetSmsUni (logger)
                                                   GprsSendOk (logger)
                                                   Gprs_SF_Deel (gsm)
                                                   Gprs_SF_Recv_Do (gsm)
                                                   Gprs_SF_Tramit_Data (logger)
                                                   Gprs_SF_XLH_FromEE (gsm)
                                                   Gprs_SF_XLH_ToEE (gsm)
                                                   GsmIsFree (gsm)
                                                   GsmLoop (gsm)
                                                   KeyDeel (key)
                                                   LcdAlarmOn (lcd)
                                                   LcdBatOn (lcd)
                                                   LcdChNoDeel (lcd)
                                                   LcdChNoValueA (lcd)
                                                   LcdChNoValueB (lcd)
                                                   LcdOFFX (lcd)
                                                   LcdRtcTime (lcd)
                                                   LoggerAlarmOneSeek (logger)
                                                   LoggerCalculateValue (logger)
                                                   LoggerConfigFirst (logger)
                                                   LoggerInit (logger)
                                                   LoggerLoop (logger)
                                                   LoggerSample (logger)
                                                   Loop2Deel (key)
                                                   PCBSQ_Record (logger)
                                                   PowInDeel (gsm)
                                                   ReadLink (uart_pc)
                                                   ReadRealValue (uart_pc)
                                                   RecAlarm (logger)
                                                   RestartClr (logger)
                                                   SF_Exit_Tc_Clr (gsm)
                                                   SeeChAlarm (logger)
                                                   SendIpPortFromEE (gsm)
                                                   SetAdcMode (uart_pc)
                                                   SetGsmMontior (uart_pc)
                                                   SetReStart (uart_pc)
                                                   SmsAlarmStart (gsm)
                                                   SmsDeel (gsm)
                                                   SmsPowReady (gsm)
                                                   TCP_LG31_Send_Head (logger)
                                                   TCP_LG_Send_Data (logger)
                                                   Timer_B (it)
                                                   U0Deel (gsm)
    -------------------------------------------------------------------------
DATA16_Z
  Relative segment, address: 145A - 1467 (0xe bytes), align: 1
  Segment part 56.
           ENTRY                   ADDRESS         REF BY
           =====                   =======         ======
           Rtc                     145A            ?Subroutine14 (uart_pc)
                                                   ?Subroutine2 (key)
                                                   ?Subroutine34 (gsm)
                                                   ?Subroutine41 (logger)
                                                   ?Subroutine5 (gsm)
                                                   ?Subroutine52 (logger)
                                                   ?Subroutine9 (logger)
                                                   LcdRtcTime (lcd)
                                                   PCBSQ_RecOne (logger)
                                                   PCBSQ_Record (logger)
                                                   ReadRtcD10 (i2c_rtc)
                                                   RtcReadTime (i2c_rtc)
                                                   RtcSetTime (i2c_rtc)
                                                   ServerCmdSet (logger)
                                                   SetReStart (uart_pc)
                                                   SetRtc (uart_pc)
                                                   rtcFromCTDstr (gsm)
    -------------------------------------------------------------------------
DATA16_Z
  Relative segment, address: 1468 - 14E3 (0x7c bytes), align: 1
  Segment part 57.
           ENTRY                   ADDRESS         REF BY
           =====                   =======         ======
           Pt                      1468            ?Subroutine14 (uart_pc)
                                                   ?Subroutine16 (uart_pc)
                                                   ?Subroutine22 (gsm)
                                                   ?Subroutine23 (gsm)
                                                   ?Subroutine37 (lcd)
                                                   ?Subroutine47 (logger)
                                                   ?Subroutine6 (gsm)
                                                   ?Subroutine8 (logger)
                                                   ADC12ISR (it)
                                                   CsqDeel (gsm)
                                                   DogClear (gsm)
                                                   DogDeel (gsm)
                                                   ErrorToRst (gsm)
                                                   GprsDataHav (logger)
                                                   GprsDueOutFromEE (logger)
                                                   GprsDueOutToEE (logger)
                                                   GprsSendOk (logger)
                                                   GprsSleepFromEE (gsm)
                                                   GprsUpSend (logger)
                                                   Gprs_Exit_Close_Deel (gsm)
                                                   Gprs_PrtCAP_FromEE (gsm)
                                                   Gprs_SF_Deel (gsm)
                                                   Gprs_SF_Recv_Do (gsm)
                                                   Gprs_SF_Send_Data (logger)
                                                   Gprs_SF_Tramit_Data (logger)
                                                   Gprs_UpTime_FromEE (gsm)
                                                   GsmFireDeel (gsm)
                                                   GsmInitDeel (gsm)
                                                   GsmIsFree (gsm)
                                                   GsmLoop (gsm)
                                                   GsmOnErrDeel (gsm)
                                                   GsmToPowOff (gsm)
                                                   GsmToPowOn (gsm)
                                                   KeyDecDeel (key)
                                                   LcdChNoDeel (lcd)
                                                   LcdOFFX (lcd)
                                                   LcdRtcTime (lcd)
                                                   LoggerCalculateValue (logger)
                                                   LoggerConfigFirst (logger)
                                                   LoggerExtInt (logger)
                                                   LoggerInit (logger)
                                                   LoggerLcdDeel (logger)
                                                   LoggerLoop (logger)
                                                   LoggerSample (logger)
                                                   LoggerWorkDeel (logger)
                                                   PCBSQ_RecOne (logger)
                                                   PCBSQ_Record (logger)
                                                   PowInDeel (gsm)
                                                   PrintDeel (print)
                                                   PrintDueOutFromEE (gsm)
                                                   PrintDueOutToEE (gsm)
                                                   PrintDueout_Clr (print)
                                                   Print_SF_Data (print)
                                                   Read_GPRS_DATA_Infor (uart_pc)
                                                   SampleRealDo (logger)
                                                   SampleRecordDeel (logger)
                                                   SetReStart (uart_pc)
                                                   SmsAlarmDeel (gsm)
                                                   SmsAlarmStart (gsm)
                                                   SmsDeel (gsm)
                                                   SmsKeyOff (gsm)
                                                   SmsKeyOn (gsm)
                                                   SmsPowDeel (gsm)
                                                   SmsPowOneOk (gsm)
                                                   SmsPowStart (gsm)
                                                   SmsRecDeel (gsm)
                                                   SmsSendOk (gsm)
                                                   TCP_LG_Send_Data (logger)
                                                   TimeDecDeel (logger)
                                                   U0Deel (gsm)
    -------------------------------------------------------------------------
DATA16_Z
  Relative segment, address: 14E4 - 14F5 (0x12 bytes), align: 1
  Segment part 58.
           ENTRY                   ADDRESS         REF BY
           =====                   =======         ======
           Sms                     14E4            CsqDeel (gsm)
                                                   ErrorToRst (gsm)
                                                   GsmFireDeel (gsm)
                                                   GsmLoop (gsm)
                                                   GsmOnErrDeel (gsm)
                                                   GsmReTime (gsm)
                                                   GsmToPowOff (gsm)
                                                   GsmToPowOn (gsm)
                                                   KeyAlarm (key)
                                                   KeyDecDeel (key)
                                                   Key_2_Do (key)
                                                   Key_3_Do (key)
                                                   LoggerConfigFirst (logger)
                                                   LoggerExtInt (logger)
                                                   LoggerInit (logger)
                                                   LoggerLoop (logger)
                                                   PCBSQ_Record (logger)
                                                   PowInDeel (gsm)
                                                   Print_Begin (print)
                                                   ReadLink (uart_pc)
                                                   SetAlarm (uart_pc)
                                                   SetGprsInfo (uart_pc)
                                                   SetPhone (uart_pc)
                                                   SetReStart (uart_pc)
                                                   SmsAlarmDeel (gsm)
                                                   SmsAlarmEnd (gsm)
                                                   SmsAlarmOneOk (gsm)
                                                   SmsAlarmStart (gsm)
                                                   SmsKeyOff (gsm)
                                                   SmsKeyOn (gsm)
                                                   SmsKeyRead (gsm)
                                                   SmsKeySet (gsm)
                                                   SmsPowDeel (gsm)
                                                   SmsPowOneOk (gsm)
                                                   SmsPowStart (gsm)
                                                   TimeDecDeel (logger)
                                                   U0Deel (gsm)
    -------------------------------------------------------------------------
DATA16_Z
  Relative segment, address: 1760 - 1763 (0x4 bytes), align: 0
  Segment part 59.
           ENTRY                   ADDRESS         REF BY
           =====                   =======         ======
           Key                     1760            ?Subroutine1 (key)
                                                   KeyDecDeel (key)
                                                   KeyDeel (key)
                                                   KeyDoing (key)
                                                   KeyIsrDo (key)
                                                   KeyTimeDe (key)
                                                   KeyXiaoDou (key)
                                                   Key_1_Do (key)
                                                   Key_3_Do (key)
                                                   Key_4_Do (key)
    -------------------------------------------------------------------------
DATA16_Z
  Relative segment, address: 14F6 - 1503 (0xe bytes), align: 1
  Segment part 62.
           ENTRY                   ADDRESS         REF BY
           =====                   =======         ======
           PcBsq                   14F6            Buf_To_Print (print)
                                                   Gprs_PrtCAP_FromEE (gsm)
                                                   Gprs_SF_Send_Data (logger)
                                                   Gprs_SF_Tramit_Data (logger)
                                                   KeyDecDeel (key)
                                                   LoggerConfigFirst (logger)
                                                   LoggerInit (logger)
                                                   PCBSQ_CapToEE (logger)
                                                   PCBSQ_FromEE (logger)
                                                   PCBSQ_RecClr (logger)
                                                   PCBSQ_RecNumPt_ToEE (logger)
                                                   PCBSQ_RecOne (logger)
                                                   PCBSQ_RecTime_ToEE (logger)
                                                   PCBSQ_Record (logger)
                                                   PrintDeel (print)
                                                   Print_SF_Data (print)
                                                   ReadLink (uart_pc)
                                                   Read_GPRS_DATA_Infor (uart_pc)
                                                   SetGprsInfo (uart_pc)
                                                   TCP_LG31_Send_Head (logger)
    -------------------------------------------------------------------------
DATA16_Z
  Relative segment, address: 1504 - 15B7 (0xb4 bytes), align: 1
  Segment part 63.
           ENTRY                   ADDRESS         REF BY
           =====                   =======         ======
           Gsm                     1504            ?Subroutine0 (gsm)
                                                   ?Subroutine27 (gsm)
                                                   ?Subroutine58 (gsm)
                                                   ?Subroutine61 (gsm)
                                                   ?Subroutine66 (gsm)
                                                   CsqDeel (gsm)
                                                   DogClear (gsm)
                                                   GprsSendOk (logger)
                                                   Gprs_SF_Deel (gsm)
                                                   PhoneIsRight (gsm)
                                                   SmsDeel (gsm)
                                                   SmsPowReady (gsm)
                                                   SmsRecDeel (gsm)
                                                   SmsSendOk (gsm)
                                                   U0Deel (gsm)
    -------------------------------------------------------------------------
DATA16_Z
  Relative segment, address: 15B8 - 174D (0x196 bytes), align: 1
  Segment part 64.
           ENTRY                   ADDRESS         REF BY
           =====                   =======         ======
           Uart_0                  15B8            GetGsmXh (gsm)
                                                   Gprs_SF_Deel (gsm)
                                                   Gprs_SF_Recv_Do (gsm)
                                                   Timer_A (it)
                                                   U0Clear (gsm)
                                                   U0Deel (gsm)
                                                   U0PduAnalyze (gsm)
                                                   USCI0RX_ISR (it)
    -------------------------------------------------------------------------
<CODE> 1 (was CODE)
  Relative segment, address: 8FC2 - 900B (0x4a bytes), align: 1
  Segment part 79.            Intra module refs:   get_mid_value
           ENTRY                   ADDRESS         REF BY
           =====                   =======         ======
           GetMidAvgCC             8FC2 
               CSTACK = 00000000 ( 0000000E )
    -------------------------------------------------------------------------
<CODE> 1 (was CODE)
  Relative segment, address: 900C - 9033 (0x28 bytes), align: 1
  Segment part 80.            Intra module refs:   get_mid_value
           ENTRY                   ADDRESS         REF BY
           =====                   =======         ======
           GetMidCC                900C 
               CSTACK = 00000000 ( 00000006 )
    -------------------------------------------------------------------------
<CODE> 1 (was CODE)
  Relative segment, address: 9034 - 9035 (0x2 bytes), align: 1
  Segment part 81.            Intra module refs:   U1SendBuf
           LOCAL                   ADDRESS         
           =====                   =======         
           ?Subroutine1            9034 
    -------------------------------------------------------------------------
<CODE> 1 (was CODE)
  Relative segment, address: 9036 - 903B (0x6 bytes), align: 1
  Segment part 82.            Intra module refs:   ?Subroutine1
                                                   GetMidCC
    -------------------------------------------------------------------------
<CODE> 1 (was CODE)
  Relative segment, address: 903C - 9093 (0x58 bytes), align: 1
  Segment part 83.
           ENTRY                   ADDRESS         REF BY
           =====                   =======         ======
           get_mid_value           903C            GetChFilterAd (logger)
               calls direct
               CSTACK = 00000000 ( 0000000A )
    -------------------------------------------------------------------------
<CODE> 1 (was CODE)
  Relative segment, address: 9094 - 90AD (0x1a bytes), align: 1
  Segment part 92.
           ENTRY                   ADDRESS         REF BY
           =====                   =======         ======
           get_add                 9094            ServerCmdSet (logger)
               CSTACK = 00000000 ( 00000004 )
    -------------------------------------------------------------------------
<CODE> 1 (was CODE)
  Relative segment, address: 90AE - 911F (0x72 bytes), align: 1
  Segment part 95.
           ENTRY                   ADDRESS         REF BY
           =====                   =======         ======
           u16ToS5                 90AE            SendIpPortFromEE (gsm)
               CSTACK = 00000000 ( 0000000C )
    -------------------------------------------------------------------------
<CODE> 1 (was CODE)
  Relative segment, address: 9120 - 912F (0x10 bytes), align: 1
  Segment part 96.            Intra module refs:   u16ToS5
           LOCAL                   ADDRESS         
           =====                   =======         
           ?Subroutine3            9120 
    -------------------------------------------------------------------------
<CODE> 1 (was CODE)
  Relative segment, address: 9130 - 9133 (0x4 bytes), align: 1
  Segment part 97.            Intra module refs:   ?Subroutine3
                                                   u16ToS5
           LOCAL                   ADDRESS         
           =====                   =======         
           ?Subroutine19           9130 
    -------------------------------------------------------------------------
<CODE> 1 (was CODE)
  Relative segment, address: 9134 - 913D (0xa bytes), align: 1
  Segment part 98.            Intra module refs:   ?Subroutine19
                                                   u16ToS5
    -------------------------------------------------------------------------
<CODE> 1 (was CODE)
  Relative segment, address: 913E - 913F (0x2 bytes), align: 1
  Segment part 102.
           ENTRY                   ADDRESS         REF BY
           =====                   =======         ======
           WirelessEnd             913E            ?Subroutine17 (uart_pc)
               CSTACK = 00000000 ( 00000002 )
    -------------------------------------------------------------------------
<CODE> 1 (was CODE)
  Relative segment, address: 9140 - 9151 (0x12 bytes), align: 1
  Segment part 103.
           ENTRY                   ADDRESS         REF BY
           =====                   =======         ======
           ClrBuf                  9140            ?Subroutine66 (gsm)
                                                   ComDeel (uart_pc)
                                                   U0Clear (gsm)
                                                   U0Deel (gsm)
               CSTACK = 00000000 ( 00000002 )
    -------------------------------------------------------------------------
<CODE> 1 (was CODE)
  Relative segment, address: 9152 - 9155 (0x4 bytes), align: 1
  Segment part 104.           Intra module refs:   U1SendStrPC
           ENTRY                   ADDRESS         REF BY
           =====                   =======         ======
           ComSendL                9152            ?Subroutine15 (logger)
                                                   ?Subroutine16 (logger)
                                                   ?Subroutine17 (uart_pc)
                                                   Gprs_SF_Deel (gsm)
                                                   Gprs_SF_Recv_Do (gsm)
                                                   PrintEnd (print)
                                                   SendIpPortFromEE (gsm)
                                                   U0Deel (gsm)
               CSTACK = 00000000 ( 00000002 )
    -------------------------------------------------------------------------
<CODE> 1 (was CODE)
  Relative segment, address: 9156 - 9167 (0x12 bytes), align: 1
  Segment part 105.           Intra module refs:   ComSendL
                                                   main
           LOCAL                   ADDRESS         
           =====                   =======         
           ?Subroutine14           9156 
    -------------------------------------------------------------------------
<CODE> 1 (was CODE)
  Relative segment, address: 9168 - 9175 (0xe bytes), align: 1
  Segment part 106.           Intra module refs:   U1SendStrPC
           ENTRY                   ADDRESS         REF BY
           =====                   =======         ======
           ComSendH                9168            ComDeel (uart_pc)
                                                   GprsSendOk (logger)
                                                   Gprs_SF_Deel (gsm)
                                                   Gprs_SF_Recv_Do (gsm)
                                                   LoggerExtInt (logger)
                                                   PrintStart (print)
                                                   SendIpPortFromEE (gsm)
                                                   TCP_LG31_Send_Head (logger)
                                                   TCP_LG_Send_Data (logger)
                                                   U0Deel (gsm)
               CSTACK = 00000000 ( 00000002 )
    -------------------------------------------------------------------------
<CODE> 1 (was CODE)
  Relative segment, address: 9176 - 918F (0x1a bytes), align: 1
  Segment part 107.
           ENTRY                   ADDRESS         REF BY
           =====                   =======         ======
           U1_RecErr               9176            Timer_A (it)
                                                   USCI1RX_ISR (it)
               CSTACK = 00000000 ( 00000002 )
    -------------------------------------------------------------------------
<CODE> 1 (was CODE)
  Relative segment, address: 9190 - 91A3 (0x14 bytes), align: 1
  Segment part 109.           Intra module refs:   U1SendBuf
                                                   U1SendStrPC
                                                   U1SendString
                                                   U1SendValue
           ENTRY                   ADDRESS         REF BY
           =====                   =======         ======
           U1SendByte              9190            ?Subroutine15 (logger)
                                                   ?Subroutine19 (uart_pc)
                                                   ?Subroutine26 (gsm)
                                                   ?Subroutine3 (print)
                                                   ?Subroutine3 (uart_pc)
                                                   CmdSendEnd (uart_pc)
                                                   CmdSendStart (uart_pc)
                                                   GoOneHang (print)
                                                   GprsSendOk (logger)
                                                   Gprs_SF_Deel (gsm)
                                                   Gprs_SF_Recv_Do (gsm)
                                                   PrintTime (print)
                                                   PrintValue (print)
                                                   ReadAdc (uart_pc)
                                                   ReadCurve (uart_pc)
                                                   ReadLink (uart_pc)
                                                   ReadPhone (uart_pc)
                                                   Read_GPRS_DATA_Bag (uart_pc)
                                                   Read_GPRS_DATA_Infor (uart_pc)
                                                   Segment part 60 (uart_pc)
                                                   Segment part 73 (print)
                                                   Segment part 77 (print)
                                                   SendIpPortFromEE (gsm)
                                                   SetCnPrint (print)
                                                   SetIni (print)
                                                   TCP_LG_Send_Data (logger)
                                                   U0Deel (gsm)
                                                   i2c_ee_read_to_pc (i2c_ee)
               CSTACK = 00000000 ( 00000002 )
    -------------------------------------------------------------------------
<CODE> 1 (was CODE)
  Relative segment, address: 91A4 - 91AB (0x8 bytes), align: 1
  Segment part 110.           Intra module refs:   CompBuf
                                                   GetPosS
                                                   U0SendByte
                                                   U1SendByte
                                                   main
           LOCAL                   ADDRESS         
           =====                   =======         
           ?Subroutine10           91A4 
    -------------------------------------------------------------------------
<CODE> 1 (was CODE)
  Relative segment, address: 91AC - 91CB (0x20 bytes), align: 1
  Segment part 111.
           ENTRY                   ADDRESS         REF BY
           =====                   =======         ======
           U1SendStrPC             91AC            ?Subroutine5 (gsm)
                                                   GprsSendOk (logger)
                                                   Gprs_SF_Deel (gsm)
                                                   Gprs_SF_Recv_Do (gsm)
                                                   GsmFireDeel (gsm)
                                                   GsmInitDeel (gsm)
                                                   GsmOnErrDeel (gsm)
                                                   GsmToPowOff (gsm)
                                                   PCBSQ_Record (logger)
                                                   ServerCmdSet (logger)
                                                   SetGsmMontior (uart_pc)
                                                   U0Deel (gsm)
                                                   rtcFromCTDstr (gsm)
               calls direct
               CSTACK = 00000000 ( 00000002 )
    -------------------------------------------------------------------------
<CODE> 1 (was CODE)
  Relative segment, address: 91CC - 91DF (0x14 bytes), align: 1
  Segment part 112.
           ENTRY                   ADDRESS         REF BY
           =====                   =======         ======
           U1SendValue             91CC            ?Subroutine26 (gsm)
                                                   GprsSendOk (logger)
                                                   Gprs_SF_Deel (gsm)
                                                   TCP_LG_Send_Data (logger)
                                                   U0Deel (gsm)
               calls direct
               CSTACK = 00000000 ( 0000000E )
    -------------------------------------------------------------------------
<CODE> 1 (was CODE)
  Relative segment, address: 91E0 - 927F (0xa0 bytes), align: 1
  Segment part 113.           Intra module refs:   U1SendValue
           LOCAL                   ADDRESS         
           =====                   =======         
           ?Subroutine0            91E0 
    -------------------------------------------------------------------------
<CODE> 1 (was CODE)
  Relative segment, address: 9280 - 9287 (0x8 bytes), align: 1
  Segment part 114.           Intra module refs:   ?Subroutine0
    -------------------------------------------------------------------------
<CODE> 1 (was CODE)
  Relative segment, address: 9288 - 9289 (0x2 bytes), align: 1
  Segment part 115.           Intra module refs:   ?Subroutine0
           LOCAL                   ADDRESS         
           =====                   =======         
           ?Subroutine12           9288 
    -------------------------------------------------------------------------
<CODE> 1 (was CODE)
  Relative segment, address: 928A - 928F (0x6 bytes), align: 1
  Segment part 116.           Intra module refs:   ?Subroutine0
                                                   ?Subroutine12
    -------------------------------------------------------------------------
<CODE> 1 (was CODE)
  Relative segment, address: 9290 - 929B (0xc bytes), align: 1
  Segment part 117.           Intra module refs:   Segment part 114
                                                   Segment part 116
           LOCAL                   ADDRESS         
           =====                   =======         
           ?Subroutine21           9290 
    -------------------------------------------------------------------------
<CODE> 1 (was CODE)
  Relative segment, address: 929C - 92AD (0x12 bytes), align: 1
  Segment part 122.
           ENTRY                   ADDRESS         REF BY
           =====                   =======         ======
           U1SendString            929C            ?Subroutine16 (logger)
                                                   GoOneHang (print)
                                                   Gprs_SF_Deel (gsm)
                                                   PrintDeel (print)
                                                   PrintValue (print)
                                                   Print_SF_Data (print)
                                                   SendIpPortFromEE (gsm)
                                                   U0Deel (gsm)
               calls direct
               CSTACK = 00000000 ( 00000002 )
    -------------------------------------------------------------------------
<CODE> 1 (was CODE)
  Relative segment, address: 92AE - 92CF (0x22 bytes), align: 1
  Segment part 123.
           ENTRY                   ADDRESS         REF BY
           =====                   =======         ======
           U1SendBuf               92AE            ?Subroutine62 (gsm)
                                                   Gprs_SF_Recv_Do (gsm)
               calls direct
               CSTACK = 00000000 ( 00000006 )
    -------------------------------------------------------------------------
<CODE> 1 (was CODE)
  Relative segment, address: 92D0 - 92DD (0xe bytes), align: 1
  Segment part 124.           Intra module refs:   U0SendString
           ENTRY                   ADDRESS         REF BY
           =====                   =======         ======
           U0SendByte              92D0            ?Subroutine12 (gsm)
                                                   ?Subroutine13 (gsm)
                                                   SendIpPortFromEE (gsm)
                                                   U0SmsPdu (gsm)
                                                   UxSendByte (logger)
                                                   i2c_ee_read_to_u0 (i2c_ee)
               CSTACK = 00000000 ( 00000002 )
    -------------------------------------------------------------------------
<CODE> 1 (was CODE)
  Relative segment, address: 92DE - 92E3 (0x6 bytes), align: 1
  Segment part 125.           Intra module refs:   U0SendByte
           LOCAL                   ADDRESS         
           =====                   =======         
           ?Subroutine2            92DE 
    -------------------------------------------------------------------------
<CODE> 1 (was CODE)
  Relative segment, address: 92E4 - 92F5 (0x12 bytes), align: 1
  Segment part 127.
           ENTRY                   ADDRESS         REF BY
           =====                   =======         ======
           U0SendString            92E4            ?Subroutine13 (gsm)
                                                   ?Subroutine8 (gsm)
                                                   CsqDeel (gsm)
                                                   Gprs_Exit_Close_Deel (gsm)
                                                   GsmFireDeel (gsm)
                                                   GsmInitDeel (gsm)
                                                   SendIpPortFromEE (gsm)
                                                   U0SmsLen (gsm)
                                                   U0SmsPdu (gsm)
               calls direct
               CSTACK = 00000000 ( 00000002 )
    -------------------------------------------------------------------------
<CODE> 1 (was CODE)
  Relative segment, address: 92F6 - 9373 (0x7e bytes), align: 1
  Segment part 141.
           ENTRY                   ADDRESS         REF BY
           =====                   =======         ======
           main                    92F6            Segment part 14 (?cstart)
               calls direct
               CSTACK = 00000000 ( 00000002 )
    -------------------------------------------------------------------------
<CODE> 1 (was CODE)
  Relative segment, address: ACBA - AD93 (0xda bytes), align: 1
  Segment part 140.           Intra module refs:   main
           ENTRY                   ADDRESS         REF BY
           =====                   =======         ======
           McuInit                 ACBA 
               calls direct
               CSTACK = 00000000 ( 00000004 )
    -------------------------------------------------------------------------
<CODE> 1 (was CODE)
  Relative segment, address: C500 - C513 (0x14 bytes), align: 1
  Segment part 138.
           ENTRY                   ADDRESS         REF BY
           =====                   =======         ======
           DelayMs                 C500            TCP_LG_Send_Data (logger)
               CSTACK = 00000000 ( 00000002 )
    -------------------------------------------------------------------------
<CODE> 1 (was CODE)
  Relative segment, address: C290 - C2B3 (0x24 bytes), align: 1
  Segment part 136.
           ENTRY                   ADDRESS         REF BY
           =====                   =======         ======
           BellOne                 C290            Timer_B (it)
               CSTACK = 00000000 ( 00000002 )
    -------------------------------------------------------------------------
<CODE> 1 (was CODE)
  Relative segment, address: C120 - C14B (0x2c bytes), align: 1
  Segment part 134.
           ENTRY                   ADDRESS         REF BY
           =====                   =======         ======
           BellNn                  C120            U0Deel (gsm)
               CSTACK = 00000000 ( 00000002 )
    -------------------------------------------------------------------------
<CODE> 1 (was CODE)
  Relative segment, address: C60C - C61B (0x10 bytes), align: 1
  Segment part 135.           Intra module refs:   BellNn
           LOCAL                   ADDRESS         
           =====                   =======         
           ?Subroutine16           C60C 
    -------------------------------------------------------------------------
<CODE> 1 (was CODE)
  Relative segment, address: B4F4 - B573 (0x80 bytes), align: 1
  Segment part 132.           Intra module refs:   McuInit
           ENTRY                   ADDRESS         REF BY
           =====                   =======         ======
           U0Init                  B4F4            GsmFireDeel (gsm)
               CSTACK = 00000000 ( 00000002 )
    -------------------------------------------------------------------------
<CODE> 1 (was CODE)
  Relative segment, address: C6EC - C6F9 (0xe bytes), align: 1
  Segment part 133.           Intra module refs:   U0Init
           LOCAL                   ADDRESS         
           =====                   =======         
           ?Subroutine17           C6EC 
    -------------------------------------------------------------------------
<CODE> 1 (was CODE)
  Relative segment, address: BD24 - BD67 (0x44 bytes), align: 1
  Segment part 131.           Intra module refs:   McuInit
           ENTRY                   ADDRESS         REF BY
           =====                   =======         ======
           U1Init                  BD24            CmdHexDeel (uart_pc)
                                                   DownTimeOver (logger)
                                                   PrintEnd (print)
                                                   PrintStart (print)
               CSTACK = 00000000 ( 00000002 )
    -------------------------------------------------------------------------
<CODE> 1 (was CODE)
  Relative segment, address: C5FC - C60B (0x10 bytes), align: 1
  Segment part 74.            Intra module refs:   CK_Buf_Num
           ENTRY                   ADDRESS         REF BY
           =====                   =======         ======
           CheckNum                C5FC 
               CSTACK = 00000000 ( 00000002 )
    -------------------------------------------------------------------------
<CODE> 1 (was CODE)
  Relative segment, address: C220 - C245 (0x26 bytes), align: 1
  Segment part 75.
           ENTRY                   ADDRESS         REF BY
           =====                   =======         ======
           CK_Buf_Num              C220            ServerCmdSet (logger)
               calls direct
               CSTACK = 00000000 ( 00000004 )
    -------------------------------------------------------------------------
<CODE> 1 (was CODE)
  Relative segment, address: C454 - C469 (0x16 bytes), align: 1
  Segment part 77.
           ENTRY                   ADDRESS         REF BY
           =====                   =======         ======
           CheckBuf                C454            ServerCmdSet (logger)
               CSTACK = 00000000 ( 00000002 )
    -------------------------------------------------------------------------
<CODE> 1 (was CODE)
  Relative segment, address: C14C - C177 (0x2c bytes), align: 1
  Segment part 69.            Intra module refs:   CompBuf
           ENTRY                   ADDRESS         REF BY
           =====                   =======         ======
           GetPosS                 C14C            GetGsmXh (gsm)
                                                   ServerCmdSet (logger)
                                                   U0Deel (gsm)
               CSTACK = 00000000 ( 00000004 )
    -------------------------------------------------------------------------
<CODE> 1 (was CODE)
  Relative segment, address: BD68 - BDAB (0x44 bytes), align: 1
  Segment part 70.
           ENTRY                   ADDRESS         REF BY
           =====                   =======         ======
           CompBuf                 BD68            Gprs_SF_Recv_Do (gsm)
                                                   U0Deel (gsm)
               calls direct
               CSTACK = 00000000 ( 00000008 )

    *************************************************************************

  FILE NAME : E:\zz-cc\c0708\0708-141\Project\Debug\Obj\modbus.r43
    *************************************************************************

  FILE NAME : E:\zz-cc\c0708\0708-141\Project\Debug\Obj\ow.r43
    *************************************************************************

  FILE NAME : E:\zz-cc\c0708\0708-141\Project\Debug\Obj\print.r43
  PROGRAM MODULE, NAME : print

  SEGMENTS IN THE MODULE
  ======================
DATA16_C
  Relative segment, address: 43F0 - 43F5 (0x6 bytes), align: 0
  Segment part 8.             Intra module refs:   PrintValue
    -------------------------------------------------------------------------
DATA16_C
  Relative segment, address: 43F6 - 43FB (0x6 bytes), align: 0
  Segment part 9.             Intra module refs:   PrintValue
    -------------------------------------------------------------------------
DATA16_C
  Relative segment, address: 43FC - 43FF (0x4 bytes), align: 0
  Segment part 10.            Intra module refs:   GoOneHang
    -------------------------------------------------------------------------
DATA16_C
  Relative segment, address: 4400 - 4421 (0x22 bytes), align: 0
  Segment part 11.            Intra module refs:   PrintDeel
    -------------------------------------------------------------------------
DATA16_C
  Relative segment, address: 4422 - 4444 (0x23 bytes), align: 0
  Segment part 13.            Intra module refs:   PrintDeel
    -------------------------------------------------------------------------
DATA16_C
  Relative segment, address: 4445 - 444D (0x9 bytes), align: 0
  Segment part 14.            Intra module refs:   PrintDeel
    -------------------------------------------------------------------------
DATA16_C
  Relative segment, address: 444E - 4458 (0xb bytes), align: 0
  Segment part 30.            Intra module refs:   Print_SF_Data
    -------------------------------------------------------------------------
DATA16_C
  Relative segment, address: 4459 - 4463 (0xb bytes), align: 0
  Segment part 31.            Intra module refs:   Print_SF_Data
    -------------------------------------------------------------------------
DATA16_C
  Relative segment, address: 4464 - 4470 (0xd bytes), align: 0
  Segment part 32.            Intra module refs:   Print_SF_Data
    -------------------------------------------------------------------------
DATA16_C
  Relative segment, address: 4471 - 448D (0x1d bytes), align: 0
  Segment part 33.            Intra module refs:   Print_SF_Data
    -------------------------------------------------------------------------
<CODE> 1 (was CODE)
  Relative segment, address: 9374 - 9415 (0xa2 bytes), align: 1
  Segment part 47.
           ENTRY                   ADDRESS         REF BY
           =====                   =======         ======
           PrintDeel               9374            GsmLoop (gsm)
               calls direct
               CSTACK = 00000000 ( 00000006 )
    -------------------------------------------------------------------------
<CODE> 1 (was CODE)
  Relative segment, address: 9416 - 941B (0x6 bytes), align: 1
  Segment part 48.            Intra module refs:   PrintDeel
           LOCAL                   ADDRESS         
           =====                   =======         
           ?Subroutine1            9416 
    -------------------------------------------------------------------------
<CODE> 1 (was CODE)
  Relative segment, address: 941C - 94B1 (0x96 bytes), align: 1
  Segment part 49.            Intra module refs:   ?Subroutine6
           ENTRY                   ADDRESS         REF BY
           =====                   =======         ======
           PrintValue              941C 
               calls direct
               CSTACK = 00000000 ( 0000000A )
    -------------------------------------------------------------------------
<CODE> 1 (was CODE)
  Relative segment, address: 94B2 - 9519 (0x68 bytes), align: 1
  Segment part 50.            Intra module refs:   ?Subroutine7
           ENTRY                   ADDRESS         REF BY
           =====                   =======         ======
           PrintTime               94B2 
               calls direct
               CSTACK = 00000000 ( 00000018 )
    -------------------------------------------------------------------------
<CODE> 1 (was CODE)
  Relative segment, address: 951A - 9525 (0xc bytes), align: 1
  Segment part 51.            Intra module refs:   ?Subroutine9
                                                   PrintTime
           LOCAL                   ADDRESS         
           =====                   =======         
           ?Subroutine37           951A 
    -------------------------------------------------------------------------
<CODE> 1 (was CODE)
  Relative segment, address: 9526 - 952F (0xa bytes), align: 1
  Segment part 52.            Intra module refs:   ?Subroutine37
                                                   PrintTime
           LOCAL                   ADDRESS         
           =====                   =======         
           ?Subroutine42           9526 
    -------------------------------------------------------------------------
<CODE> 1 (was CODE)
  Relative segment, address: 9530 - 9539 (0xa bytes), align: 1
  Segment part 53.            Intra module refs:   PrintTime
           LOCAL                   ADDRESS         
           =====                   =======         
           ?Subroutine9            9530 
    -------------------------------------------------------------------------
<CODE> 1 (was CODE)
  Relative segment, address: 953A - 95FF (0xc6 bytes), align: 1
  Segment part 54.
           ENTRY                   ADDRESS         REF BY
           =====                   =======         ======
           Buf_To_Print            953A            BufTx (logger)
               calls direct
               CSTACK = 00000000 ( 0000000E )
    -------------------------------------------------------------------------
<CODE> 1 (was CODE)
  Relative segment, address: 9600 - 9601 (0x2 bytes), align: 1
  Segment part 59.            Intra module refs:   ?Subroutine22
                                                   PrintValue
           LOCAL                   ADDRESS         
           =====                   =======         
           ?Subroutine40           9600 
    -------------------------------------------------------------------------
<CODE> 1 (was CODE)
  Relative segment, address: 9602 - 9607 (0x6 bytes), align: 1
  Segment part 60.            Intra module refs:   ?Subroutine22
                                                   ?Subroutine40
                                                   ?Subroutine41
           LOCAL                   ADDRESS         
           =====                   =======         
           ?Subroutine44           9602 
    -------------------------------------------------------------------------
<CODE> 1 (was CODE)
  Relative segment, address: 9608 - 960F (0x8 bytes), align: 1
  Segment part 61.            Intra module refs:   PrintValue
           LOCAL                   ADDRESS         
           =====                   =======         
           ?Subroutine25           9608 
    -------------------------------------------------------------------------
<CODE> 1 (was CODE)
  Relative segment, address: 9610 - 9615 (0x6 bytes), align: 1
  Segment part 62.            Intra module refs:   PrintValue
           LOCAL                   ADDRESS         
           =====                   =======         
           ?Subroutine22           9610 
    -------------------------------------------------------------------------
<CODE> 1 (was CODE)
  Relative segment, address: 9616 - 961B (0x6 bytes), align: 1
  Segment part 63.            Intra module refs:   PrintValue
           LOCAL                   ADDRESS         
           =====                   =======         
           ?Subroutine20           9616 
    -------------------------------------------------------------------------
<CODE> 1 (was CODE)
  Relative segment, address: 961C - 9621 (0x6 bytes), align: 1
  Segment part 64.            Intra module refs:   ?Subroutine20
                                                   ?Subroutine25
           LOCAL                   ADDRESS         
           =====                   =======         
           ?Subroutine41           961C 
    -------------------------------------------------------------------------
<CODE> 1 (was CODE)
  Relative segment, address: 9622 - 9627 (0x6 bytes), align: 1
  Segment part 71.            Intra module refs:   PrintDeel
                                                   Print_SF_Data
           LOCAL                   ADDRESS         
           =====                   =======         
           ?Subroutine16           9622 
    -------------------------------------------------------------------------
<CODE> 1 (was CODE)
  Relative segment, address: 9628 - 962B (0x4 bytes), align: 1
  Segment part 72.            Intra module refs:   Buf_To_Print
           LOCAL                   ADDRESS         
           =====                   =======         
           ?Subroutine7            9628 
    -------------------------------------------------------------------------
<CODE> 1 (was CODE)
  Relative segment, address: 962C - 9633 (0x8 bytes), align: 1
  Segment part 73.            Intra module refs:   ?Subroutine7
                                                   Buf_To_Print
    -------------------------------------------------------------------------
<CODE> 1 (was CODE)
  Relative segment, address: 9634 - 9637 (0x4 bytes), align: 1
  Segment part 76.            Intra module refs:   Buf_To_Print
           LOCAL                   ADDRESS         
           =====                   =======         
           ?Subroutine6            9634 
    -------------------------------------------------------------------------
<CODE> 1 (was CODE)
  Relative segment, address: 9638 - 963F (0x8 bytes), align: 1
  Segment part 77.            Intra module refs:   ?Subroutine6
    -------------------------------------------------------------------------
<CODE> 1 (was CODE)
  Relative segment, address: 9640 - 9653 (0x14 bytes), align: 1
  Segment part 87.            Intra module refs:   Print_SF_Data
           LOCAL                   ADDRESS         
           =====                   =======         
           ?Subroutine4            9640 
    -------------------------------------------------------------------------
<CODE> 1 (was CODE)
  Relative segment, address: 9654 - 966F (0x1c bytes), align: 1
  Segment part 88.            Intra module refs:   Print_SF_Data
           LOCAL                   ADDRESS         
           =====                   =======         
           ?Subroutine3            9654 
    -------------------------------------------------------------------------
<CODE> 1 (was CODE)
  Relative segment, address: 9670 - 9675 (0x6 bytes), align: 1
  Segment part 102.           Intra module refs:   Buf_To_Print
           LOCAL                   ADDRESS         
           =====                   =======         
           ?Subroutine21           9670 
    -------------------------------------------------------------------------
<CODE> 1 (was CODE)
  Relative segment, address: 9676 - 967D (0x8 bytes), align: 1
  Segment part 103.           Intra module refs:   ?Subroutine21
           LOCAL                   ADDRESS         
           =====                   =======         
           ?Subroutine43           9676 
    -------------------------------------------------------------------------
<CODE> 1 (was CODE)
  Relative segment, address: 967E - 9699 (0x1c bytes), align: 1
  Segment part 41.            Intra module refs:   ?Subroutine14
           ENTRY                   ADDRESS         REF BY
           =====                   =======         ======
           SetCnPrint              967E 
               calls direct
               CSTACK = 00000000 ( 00000004 )
    -------------------------------------------------------------------------
<CODE> 1 (was CODE)
  Relative segment, address: 969A - 969F (0x6 bytes), align: 1
  Segment part 42.            Intra module refs:   SetCnPrint
                                                   SetIni
           LOCAL                   ADDRESS         
           =====                   =======         
           ?Subroutine0            969A 
    -------------------------------------------------------------------------
<CODE> 1 (was CODE)
  Relative segment, address: 96A0 - 96CB (0x2c bytes), align: 1
  Segment part 43.            Intra module refs:   ?Subroutine14
           ENTRY                   ADDRESS         REF BY
           =====                   =======         ======
           SetIni                  96A0 
               calls direct
               CSTACK = 00000000 ( 00000004 )
    -------------------------------------------------------------------------
<CODE> 1 (was CODE)
  Relative segment, address: BFCA - BFFD (0x34 bytes), align: 1
  Segment part 40.            Intra module refs:   ?Subroutine16
                                                   PrintDeel
                                                   Print_SF_Data
           ENTRY                   ADDRESS         REF BY
           =====                   =======         ======
           GoOneHang               BFCA 
               calls direct
               CSTACK = 00000000 ( 00000004 )
    -------------------------------------------------------------------------
<CODE> 1 (was CODE)
  Relative segment, address: C496 - C4AB (0x16 bytes), align: 1
  Segment part 44.            Intra module refs:   Print_SF_Data
           ENTRY                   ADDRESS         REF BY
           =====                   =======         ======
           PrintStart              C496 
               calls direct
               CSTACK = 00000000 ( 00000002 )
    -------------------------------------------------------------------------
<CODE> 1 (was CODE)
  Relative segment, address: C4D8 - C4EB (0x14 bytes), align: 1
  Segment part 39.            Intra module refs:   PrintDeel
                                                   Print_SF_Data
           ENTRY                   ADDRESS         REF BY
           =====                   =======         ======
           PrintEnd                C4D8 
               calls direct
               CSTACK = 00000000 ( 00000002 )
    -------------------------------------------------------------------------
<CODE> 1 (was CODE)
  Relative segment, address: C2D8 - C2F7 (0x20 bytes), align: 1
  Segment part 115.           Intra module refs:   Print_SF_Data
           LOCAL                   ADDRESS         
           =====                   =======         
           ?Subroutine14           C2D8 
    -------------------------------------------------------------------------
<CODE> 1 (was CODE)
  Relative segment, address: B3F2 - B473 (0x82 bytes), align: 1
  Segment part 45.            Intra module refs:   Print_Begin
           ENTRY                   ADDRESS         REF BY
           =====                   =======         ======
           Print_SF_Data           B3F2 
               calls direct
               CSTACK = 00000000 ( 00000008 )
    -------------------------------------------------------------------------
<CODE> 1 (was CODE)
  Relative segment, address: C76E - C775 (0x8 bytes), align: 1
  Segment part 36.            Intra module refs:   PrintKeyClr
           ENTRY                   ADDRESS         REF BY
           =====                   =======         ======
           PrintDueout_Clr         C76E            LoggerConfigFirst (logger)
                                                   SetReStart (uart_pc)
               calls direct
               CSTACK = 00000000 ( 00000002 )
    -------------------------------------------------------------------------
<CODE> 1 (was CODE)
  Relative segment, address: C514 - C527 (0x14 bytes), align: 1
  Segment part 46.
           ENTRY                   ADDRESS         REF BY
           =====                   =======         ======
           Print_Begin             C514            KeyDecDeel (key)
               calls direct
               CSTACK = 00000000 ( 00000002 )
    -------------------------------------------------------------------------
<CODE> 1 (was CODE)
  Relative segment, address: C064 - C07F (0x1c bytes), align: 1
  Segment part 37.
           ENTRY                   ADDRESS         REF BY
           =====                   =======         ======
           PrintKeyClr             C064            KeyDecDeel (key)
               calls direct
               CSTACK = 00000000 ( 00000002 )
    -------------------------------------------------------------------------
<CODE> 1 (was CODE)
  Relative segment, address: C080 - C093 (0x14 bytes), align: 1
  Segment part 38.            Intra module refs:   PrintKeyClr
           LOCAL                   ADDRESS         
           =====                   =======         
           ?Subroutine2            C080 

    *************************************************************************

  FILE NAME : E:\zz-cc\c0708\0708-141\Project\Debug\Obj\rfkp.r43
    *************************************************************************

  FILE NAME : E:\zz-cc\c0708\0708-141\Project\Debug\Obj\rtc.r43
  PROGRAM MODULE, NAME : rtc

  SEGMENTS IN THE MODULE
  ======================
<CODE> 1 (was CODE)
  Relative segment, address: B362 - B3F1 (0x90 bytes), align: 1
  Segment part 17.
           ENTRY                   ADDRESS         REF BY
           =====                   =======         ======
           DateToSeconds           B362            ReadRtcD10 (i2c_rtc)
                                                   ServerCmdSet (logger)
                                                   rtcFromCTDstr (gsm)
               CSTACK = 00000000 ( 0000000C )
    -------------------------------------------------------------------------
<CODE> 1 (was CODE)
  Relative segment, address: C2F8 - C2F9 (0x2 bytes), align: 1
  Segment part 18.            Intra module refs:   DateToSeconds
           LOCAL                   ADDRESS         
           =====                   =======         
           ?Subroutine5            C2F8 
    -------------------------------------------------------------------------
<CODE> 1 (was CODE)
  Relative segment, address: C2FA - C303 (0xa bytes), align: 1
  Segment part 19.            Intra module refs:   ?Subroutine4
                                                   ?Subroutine5
    -------------------------------------------------------------------------
<CODE> 1 (was CODE)
  Relative segment, address: C304 - C315 (0x12 bytes), align: 1
  Segment part 20.            Intra module refs:   DateToSeconds
           LOCAL                   ADDRESS         
           =====                   =======         
           ?Subroutine4            C304 
    -------------------------------------------------------------------------
DATA16_I
  Relative segment, address: 111A - 1149 (0x30 bytes), align: 1
  Segment part 2.             Intra module refs:   DateToSeconds
           LOCAL                   ADDRESS         
           =====                   =======         
           DateToSeconds::month    111A 
    -------------------------------------------------------------------------
<CODE> 1 (was CODE)
  Relative segment, address: AE6A - AF3B (0xd2 bytes), align: 1
  Segment part 9.             Intra module refs:   SS_To_BCD
           ENTRY                   ADDRESS         REF BY
           =====                   =======         ======
           SecondsToDate           AE6A            ?Subroutine9 (logger)
                                                   TCP_LG_Send_Data (logger)
                                                   rtcFromCTDstr (gsm)
               CSTACK = 00000000 ( 00000010 )
    -------------------------------------------------------------------------
<CODE> 1 (was CODE)
  Relative segment, address: C698 - C69F (0x8 bytes), align: 1
  Segment part 10.            Intra module refs:   SecondsToDate
           LOCAL                   ADDRESS         
           =====                   =======         
           ?Subroutine2            C698 
    -------------------------------------------------------------------------
<CODE> 1 (was CODE)
  Relative segment, address: C6A0 - C6A5 (0x6 bytes), align: 1
  Segment part 11.            Intra module refs:   ?Subroutine2
                                                   SecondsToDate
    -------------------------------------------------------------------------
<CODE> 1 (was CODE)
  Relative segment, address: C54C - C551 (0x6 bytes), align: 1
  Segment part 12.            Intra module refs:   SecondsToDate
           LOCAL                   ADDRESS         
           =====                   =======         
           ?Subroutine1            C54C 
    -------------------------------------------------------------------------
<CODE> 1 (was CODE)
  Relative segment, address: C552 - C55D (0xc bytes), align: 1
  Segment part 13.            Intra module refs:   ?Subroutine1
                                                   SecondsToDate
    -------------------------------------------------------------------------
DATA16_I
  Relative segment, address: 114A - 1155 (0xc bytes), align: 0
  Segment part 4.             Intra module refs:   SecondsToDate
           LOCAL                   ADDRESS         
           =====                   =======         
           SecondsToDate::month    114A 
    -------------------------------------------------------------------------
<CODE> 1 (was CODE)
  Relative segment, address: BA44 - BA97 (0x54 bytes), align: 1
  Segment part 15.
           ENTRY                   ADDRESS         REF BY
           =====                   =======         ======
           RtcBcdToD10             BA44            ?Subroutine14 (uart_pc)
                                                   ?Subroutine34 (gsm)
                                                   ?Subroutine52 (logger)
                                                   ReadRtcD10 (i2c_rtc)
               CSTACK = 00000000 ( 00000004 )
    -------------------------------------------------------------------------
<CODE> 1 (was CODE)
  Relative segment, address: C480 - C495 (0x16 bytes), align: 1
  Segment part 16.            Intra module refs:   RtcBcdToD10
           LOCAL                   ADDRESS         
           =====                   =======         
           ?Subroutine3            C480 
    -------------------------------------------------------------------------
<CODE> 1 (was CODE)
  Relative segment, address: B8E6 - B93F (0x5a bytes), align: 1
  Segment part 7.             Intra module refs:   SS_To_BCD
           ENTRY                   ADDRESS         REF BY
           =====                   =======         ======
           RtcD10ToBcd             B8E6            ?Subroutine9 (logger)
                                                   TCP_LG_Send_Data (logger)
                                                   rtcFromCTDstr (gsm)
               CSTACK = 00000000 ( 0000000A )
    -------------------------------------------------------------------------
<CODE> 1 (was CODE)
  Relative segment, address: C3D8 - C3F1 (0x1a bytes), align: 1
  Segment part 8.             Intra module refs:   RtcD10ToBcd
           LOCAL                   ADDRESS         
           =====                   =======         
           ?Subroutine0            C3D8 
    -------------------------------------------------------------------------
<CODE> 1 (was CODE)
  Relative segment, address: C178 - C1A3 (0x2c bytes), align: 1
  Segment part 14.
           ENTRY                   ADDRESS         REF BY
           =====                   =======         ======
           SS_To_BCD               C178            PrintTime (print)
               calls direct
               CSTACK = 00000000 ( 00000012 )
    -------------------------------------------------------------------------
<CODE> 1 (was CODE)
  Relative segment, address: BE30 - BE6F (0x40 bytes), align: 1
  Segment part 6.
           ENTRY                   ADDRESS         REF BY
           =====                   =======         ======
           Rtc_Is_Right            BE30            ReadRtcD10 (i2c_rtc)
                                                   ServerCmdSet (logger)
                                                   rtcFromCTDstr (gsm)
               CSTACK = 00000000 ( 00000002 )
    -------------------------------------------------------------------------
DATA16_ID
  Relative segment, address: 44DA - 4509 (0x30 bytes), align: 1
  Segment part 3.             Intra module refs:   DateToSeconds::month
    -------------------------------------------------------------------------
DATA16_ID
  Relative segment, address: 450A - 4515 (0xc bytes), align: 0
  Segment part 5.             Intra module refs:   SecondsToDate::month

    *************************************************************************

  FILE NAME : E:\zz-cc\c0708\0708-141\Project\Debug\Obj\spi_max31855.r43
    *************************************************************************

  FILE NAME : E:\zz-cc\c0708\0708-141\Project\Debug\Obj\spi_max31865.r43
    *************************************************************************

  FILE NAME : E:\zz-cc\c0708\0708-141\Project\Debug\Obj\uart_pc.r43
  PROGRAM MODULE, NAME : uart_pc

  SEGMENTS IN THE MODULE
  ======================
<CODE> 1 (was CODE)
  Relative segment, address: BF94 - BFC9 (0x36 bytes), align: 1
  Segment part 67.
           ENTRY                   ADDRESS         REF BY
           =====                   =======         ======
           ComDeel                 BF94            main (main)
               calls direct
               CSTACK = 00000000 ( 00000002 )
    -------------------------------------------------------------------------
<CODE> 1 (was CODE)
  Relative segment, address: C570 - C581 (0x12 bytes), align: 1
  Segment part 68.            Intra module refs:   ComDeel
           LOCAL                   ADDRESS         
           =====                   =======         
           ?Subroutine17           C570 
    -------------------------------------------------------------------------
<CODE> 1 (was CODE)
  Relative segment, address: C55E - C56F (0x12 bytes), align: 1
  Segment part 66.            Intra module refs:   ComDeel
           ENTRY                   ADDRESS         REF BY
           =====                   =======         ======
           CmdHexDownPag           C55E 
               calls direct
               CSTACK = 00000000 ( 00000002 )
    -------------------------------------------------------------------------
<CODE> 1 (was CODE)
  Relative segment, address: A8C0 - A9CF (0x110 bytes), align: 1
  Segment part 64.            Intra module refs:   ComDeel
           ENTRY                   ADDRESS         REF BY
           =====                   =======         ======
           CmdHexDeel              A8C0 
               calls direct
               CSTACK = 00000000 ( 00000002 )
    -------------------------------------------------------------------------
<CODE> 1 (was CODE)
  Relative segment, address: BEB0 - BEED (0x3e bytes), align: 1
  Segment part 6.             Intra module refs:   ?Subroutine11
                                                   ?Subroutine19
                                                   ?Subroutine8
                                                   ReadAdc
                                                   ReadCurve
                                                   ReadLink
                                                   ReadPhone
                                                   ReadRealValue
                                                   Read_GPRS_DATA_Infor
           ENTRY                   ADDRESS         REF BY
           =====                   =======         ======
           CmdSendStart            BEB0 
               calls direct
               CSTACK = 00000000 ( 0000000C )
    -------------------------------------------------------------------------
<CODE> 1 (was CODE)
  Relative segment, address: C742 - C74D (0xc bytes), align: 1
  Segment part 5.             Intra module refs:   ?Subroutine20
                                                   ReadAdc
                                                   ReadCurve
                                                   ReadLink
                                                   ReadPhone
                                                   ReadRealValue
                                                   Read_GPRS_DATA_Infor
                                                   Segment part 62
           ENTRY                   ADDRESS         REF BY
           =====                   =======         ======
           CmdSendEnd              C742 
               calls direct
               CSTACK = 00000000 ( 00000002 )
    -------------------------------------------------------------------------
<CODE> 1 (was CODE)
  Relative segment, address: 9CC8 - 9F27 (0x260 bytes), align: 1
  Segment part 63.            Intra module refs:   CmdHexDeel
           ENTRY                   ADDRESS         REF BY
           =====                   =======         ======
           ReadLink                9CC8 
               calls direct and indirect
               CSTACK = 00000000 ( 00000018 )
    -------------------------------------------------------------------------
<CODE> 1 (was CODE)
  Relative segment, address: 87A2 - 88C9 (0x128 bytes), align: 1
  Segment part 8.             Intra module refs:   CmdHexDeel
           ENTRY                   ADDRESS         REF BY
           =====                   =======         ======
           Read_GPRS_DATA_Infor    87A2 
               calls direct
               CSTACK = 00000000 ( 0000001A )
    -------------------------------------------------------------------------
<CODE> 1 (was CODE)
  Relative segment, address: 88CA - 88CF (0x6 bytes), align: 1
  Segment part 9.             Intra module refs:   Read_GPRS_DATA_Infor
           LOCAL                   ADDRESS         
           =====                   =======         
           ?Subroutine0            88CA 
    -------------------------------------------------------------------------
<CODE> 1 (was CODE)
  Relative segment, address: 88D0 - 8913 (0x44 bytes), align: 1
  Segment part 10.
           ENTRY                   ADDRESS         REF BY
           =====                   =======         ======
           Buf_To_PC               88D0            BufTx (logger)
               calls direct
               CSTACK = 00000000 ( 00000008 )
    -------------------------------------------------------------------------
<CODE> 1 (was CODE)
  Relative segment, address: 8914 - 893B (0x28 bytes), align: 1
  Segment part 13.            Intra module refs:   CmdHexDeel
           ENTRY                   ADDRESS         REF BY
           =====                   =======         ======
           SetRtc                  8914 
               calls direct
               CSTACK = 00000000 ( 00000004 )
    -------------------------------------------------------------------------
<CODE> 1 (was CODE)
  Relative segment, address: 893C - 8945 (0xa bytes), align: 1
  Segment part 17.            Intra module refs:   Read_GPRS_DATA_Bag
           LOCAL                   ADDRESS         
           =====                   =======         
           ?Subroutine8            893C 
    -------------------------------------------------------------------------
<CODE> 1 (was CODE)
  Relative segment, address: 8946 - 8953 (0xe bytes), align: 1
  Segment part 18.            Intra module refs:   Read_GPRS_DATA_Infor
           LOCAL                   ADDRESS         
           =====                   =======         
           ?Subroutine6            8946 
    -------------------------------------------------------------------------
<CODE> 1 (was CODE)
  Relative segment, address: 8954 - 8959 (0x6 bytes), align: 1
  Segment part 21.            Intra module refs:   Read_GPRS_DATA_Bag
    -------------------------------------------------------------------------
<CODE> 1 (was CODE)
  Relative segment, address: 895A - 8979 (0x20 bytes), align: 1
  Segment part 23.            Intra module refs:   CmdHexDeel
           ENTRY                   ADDRESS         REF BY
           =====                   =======         ======
           SetGsmMontior           895A 
               calls direct
               CSTACK = 00000000 ( 00000002 )
    -------------------------------------------------------------------------
<CODE> 1 (was CODE)
  Relative segment, address: 897A - 8A4F (0xd6 bytes), align: 1
  Segment part 27.            Intra module refs:   CmdHexDeel
           ENTRY                   ADDRESS         REF BY
           =====                   =======         ======
           SetStateB               897A 
               calls direct
               CSTACK = 00000000 ( 00000006 )
    -------------------------------------------------------------------------
<CODE> 1 (was CODE)
  Relative segment, address: 8A50 - 8A59 (0xa bytes), align: 1
  Segment part 28.            Intra module refs:   SetGprsInfo
                                                   SetStateB
           LOCAL                   ADDRESS         
           =====                   =======         
           ?Subroutine2            8A50 
    -------------------------------------------------------------------------
<CODE> 1 (was CODE)
  Relative segment, address: 8A5A - 8A83 (0x2a bytes), align: 1
  Segment part 29.            Intra module refs:   CmdHexDeel
           ENTRY                   ADDRESS         REF BY
           =====                   =======         ======
           SetAddress              8A5A 
               calls direct
               CSTACK = 00000000 ( 00000004 )
    -------------------------------------------------------------------------
<CODE> 1 (was CODE)
  Relative segment, address: 8A84 - 8AEB (0x68 bytes), align: 1
  Segment part 30.            Intra module refs:   CmdHexDeel
           ENTRY                   ADDRESS         REF BY
           =====                   =======         ======
           SetCurve                8A84 
               calls direct
               CSTACK = 00000000 ( 00000036 )
    -------------------------------------------------------------------------
<CODE> 1 (was CODE)
  Relative segment, address: 8AEC - 8B6F (0x84 bytes), align: 1
  Segment part 31.            Intra module refs:   CmdHexDeel
           ENTRY                   ADDRESS         REF BY
           =====                   =======         ======
           ReadCurve               8AEC 
               calls direct and indirect
               CSTACK = 00000000 ( 0000003C )
    -------------------------------------------------------------------------
<CODE> 1 (was CODE)
  Relative segment, address: 8B70 - 8BB1 (0x42 bytes), align: 1
  Segment part 32.            Intra module refs:   CmdHexDeel
           ENTRY                   ADDRESS         REF BY
           =====                   =======         ======
           ReadAdc                 8B70 
               calls direct
               CSTACK = 00000000 ( 0000000A )
    -------------------------------------------------------------------------
<CODE> 1 (was CODE)
  Relative segment, address: 8BB2 - 8C05 (0x54 bytes), align: 1
  Segment part 34.            Intra module refs:   CmdHexDeel
           ENTRY                   ADDRESS         REF BY
           =====                   =======         ======
           ReadRealValue           8BB2 
               calls direct
               CSTACK = 00000000 ( 00000008 )
    -------------------------------------------------------------------------
<CODE> 1 (was CODE)
  Relative segment, address: 8C06 - 8C0D (0x8 bytes), align: 1
  Segment part 35.            Intra module refs:   Buf_To_PC
                                                   ReadRealValue
           LOCAL                   ADDRESS         
           =====                   =======         
           ?Subroutine3            8C06 
    -------------------------------------------------------------------------
<CODE> 1 (was CODE)
  Relative segment, address: 8C0E - 8C61 (0x54 bytes), align: 1
  Segment part 36.            Intra module refs:   CmdHexDeel
           ENTRY                   ADDRESS         REF BY
           =====                   =======         ======
           SetGprsInfo             8C0E 
               calls direct
               CSTACK = 00000000 ( 00000006 )
    -------------------------------------------------------------------------
<CODE> 1 (was CODE)
  Relative segment, address: 8C62 - 8C6D (0xc bytes), align: 1
  Segment part 37.            Intra module refs:   SetGprsInfo
                                                   SetStateB
           LOCAL                   ADDRESS         
           =====                   =======         
           ?Subroutine12           8C62 
    -------------------------------------------------------------------------
<CODE> 1 (was CODE)
  Relative segment, address: 8C6E - 8C99 (0x2c bytes), align: 1
  Segment part 38.            Intra module refs:   CmdHexDeel
           ENTRY                   ADDRESS         REF BY
           =====                   =======         ======
           ReadGprsInfo            8C6E 
               calls direct
               CSTACK = 00000000 ( 00000004 )
    -------------------------------------------------------------------------
<CODE> 1 (was CODE)
  Relative segment, address: 8C9A - 8CA5 (0xc bytes), align: 1
  Segment part 39.            Intra module refs:   ReadGprsInfo
                                                   SetGprsInfo
           LOCAL                   ADDRESS         
           =====                   =======         
           ?Subroutine18           8C9A 
    -------------------------------------------------------------------------
<CODE> 1 (was CODE)
  Relative segment, address: 8CA6 - 8D9D (0xf8 bytes), align: 1
  Segment part 40.            Intra module refs:   CmdHexDeel
           ENTRY                   ADDRESS         REF BY
           =====                   =======         ======
           SetReStart              8CA6 
               calls direct
               CSTACK = 00000000 ( 00000006 )
    -------------------------------------------------------------------------
<CODE> 1 (was CODE)
  Relative segment, address: 8D9E - 8DAB (0xe bytes), align: 1
  Segment part 41.            Intra module refs:   SetReStart
                                                   SetStateB
           LOCAL                   ADDRESS         
           =====                   =======         
           ?Subroutine16           8D9E 
    -------------------------------------------------------------------------
<CODE> 1 (was CODE)
  Relative segment, address: 8DAC - 8DBD (0x12 bytes), align: 1
  Segment part 42.            Intra module refs:   SetReStart
                                                   SetRtc
           LOCAL                   ADDRESS         
           =====                   =======         
           ?Subroutine14           8DAC 
    -------------------------------------------------------------------------
<CODE> 1 (was CODE)
  Relative segment, address: 8DBE - 8DC9 (0xc bytes), align: 1
  Segment part 43.            Intra module refs:   ?Subroutine4
                                                   SetAddress
                                                   SetAlarm
                                                   SetCurve
                                                   SetFactorySetting
                                                   SetPhone
                                                   SetReStart
                                                   SetStateB
           LOCAL                   ADDRESS         
           =====                   =======         
           ?Subroutine19           8DBE 
    -------------------------------------------------------------------------
<CODE> 1 (was CODE)
  Relative segment, address: 8DCA - 8DCF (0x6 bytes), align: 1
  Segment part 44.            Intra module refs:   ?Subroutine19
                                                   ReadGprsInfo
                                                   Read_GPRS_DATA_Bag
           LOCAL                   ADDRESS         
           =====                   =======         
           ?Subroutine20           8DCA 
    -------------------------------------------------------------------------
<CODE> 1 (was CODE)
  Relative segment, address: 8DD0 - 8DD7 (0x8 bytes), align: 1
  Segment part 46.            Intra module refs:   ?Subroutine1
                                                   ReadGprsInfo
                                                   ReadSmsTitle
                                                   SetAdcMode
           LOCAL                   ADDRESS         
           =====                   =======         
           ?Subroutine11           8DD0 
    -------------------------------------------------------------------------
<CODE> 1 (was CODE)
  Relative segment, address: 8DD8 - 8E47 (0x70 bytes), align: 1
  Segment part 47.            Intra module refs:   CmdHexDeel
           ENTRY                   ADDRESS         REF BY
           =====                   =======         ======
           ReadPhone               8DD8 
               calls direct
               CSTACK = 00000000 ( 0000002A )
    -------------------------------------------------------------------------
<CODE> 1 (was CODE)
  Relative segment, address: 8E48 - 8EA5 (0x5e bytes), align: 1
  Segment part 48.            Intra module refs:   CmdHexDeel
           ENTRY                   ADDRESS         REF BY
           =====                   =======         ======
           SetPhone                8E48 
               calls direct
               CSTACK = 00000000 ( 00000026 )
    -------------------------------------------------------------------------
<CODE> 1 (was CODE)
  Relative segment, address: 8EA6 - 8EC3 (0x1e bytes), align: 1
  Segment part 49.            Intra module refs:   CmdHexDeel
           ENTRY                   ADDRESS         REF BY
           =====                   =======         ======
           ReadSmsTitle            8EA6 
               calls direct
               CSTACK = 00000000 ( 00000004 )
    -------------------------------------------------------------------------
<CODE> 1 (was CODE)
  Relative segment, address: 8EC4 - 8EE1 (0x1e bytes), align: 1
  Segment part 50.            Intra module refs:   CmdHexDeel
           ENTRY                   ADDRESS         REF BY
           =====                   =======         ======
           SetSmsTitle             8EC4 
               calls direct
               CSTACK = 00000000 ( 00000004 )
    -------------------------------------------------------------------------
<CODE> 1 (was CODE)
  Relative segment, address: 8EE2 - 8EE9 (0x8 bytes), align: 1
  Segment part 51.            Intra module refs:   SetAddress
                                                   SetGprsInfo
                                                   SetModelSerialNum
                                                   SetSmsTitle
           LOCAL                   ADDRESS         
           =====                   =======         
           ?Subroutine15           8EE2 
    -------------------------------------------------------------------------
<CODE> 1 (was CODE)
  Relative segment, address: 8EEA - 8EF1 (0x8 bytes), align: 1
  Segment part 52.            Intra module refs:   SetGprsInfo
                                                   SetSmsTitle
           LOCAL                   ADDRESS         
           =====                   =======         
           ?Subroutine4            8EEA 
    -------------------------------------------------------------------------
<CODE> 1 (was CODE)
  Relative segment, address: 8EF2 - 8F29 (0x38 bytes), align: 1
  Segment part 53.            Intra module refs:   CmdHexDeel
           ENTRY                   ADDRESS         REF BY
           =====                   =======         ======
           SetAlarm                8EF2 
               calls direct
               CSTACK = 00000000 ( 00000004 )
    -------------------------------------------------------------------------
<CODE> 1 (was CODE)
  Relative segment, address: 8F2A - 8F3D (0x14 bytes), align: 1
  Segment part 54.            Intra module refs:   SetAlarm
           LOCAL                   ADDRESS         
           =====                   =======         
           ?Subroutine13           8F2A 
    -------------------------------------------------------------------------
<CODE> 1 (was CODE)
  Relative segment, address: 8F3E - 8F69 (0x2c bytes), align: 1
  Segment part 56.            Intra module refs:   CmdHexDeel
           ENTRY                   ADDRESS         REF BY
           =====                   =======         ======
           SetModelSerialNum       8F3E 
               calls direct
               CSTACK = 00000000 ( 00000004 )
    -------------------------------------------------------------------------
<CODE> 1 (was CODE)
  Relative segment, address: 8F6A - 8F7F (0x16 bytes), align: 1
  Segment part 57.            Intra module refs:   CmdHexDeel
           ENTRY                   ADDRESS         REF BY
           =====                   =======         ======
           SetFactorySetting       8F6A 
               calls direct
               CSTACK = 00000000 ( 00000004 )
    -------------------------------------------------------------------------
<CODE> 1 (was CODE)
  Relative segment, address: 8F80 - 8FAD (0x2e bytes), align: 1
  Segment part 58.            Intra module refs:   CmdHexDeel
           ENTRY                   ADDRESS         REF BY
           =====                   =======         ======
           SetAdcMode              8F80 
               calls direct
               CSTACK = 00000000 ( 00000004 )
    -------------------------------------------------------------------------
<CODE> 1 (was CODE)
  Relative segment, address: 8FAE - 8FB3 (0x6 bytes), align: 1
  Segment part 59.            Intra module refs:   SetModelSerialNum
                                                   SetRtc
           LOCAL                   ADDRESS         
           =====                   =======         
           ?Subroutine1            8FAE 
    -------------------------------------------------------------------------
<CODE> 1 (was CODE)
  Relative segment, address: 8FB4 - 8FB7 (0x4 bytes), align: 1
  Segment part 60.            Intra module refs:   ?Subroutine1
                                                   SetAdcMode
    -------------------------------------------------------------------------
<CODE> 1 (was CODE)
  Relative segment, address: 8FB8 - 8FB9 (0x2 bytes), align: 1
  Segment part 61.            Intra module refs:   ReadSmsTitle
                                                   Segment part 60
    -------------------------------------------------------------------------
<CODE> 1 (was CODE)
  Relative segment, address: 8FBA - 8FC1 (0x8 bytes), align: 1
  Segment part 62.            Intra module refs:   Segment part 61
    -------------------------------------------------------------------------
<CODE> 1 (was CODE)
  Relative segment, address: B0BE - B175 (0xb8 bytes), align: 1
  Segment part 7.             Intra module refs:   CmdHexDownPag
           ENTRY                   ADDRESS         REF BY
           =====                   =======         ======
           Read_GPRS_DATA_Bag      B0BE 
               calls direct
               CSTACK = 00000000 ( 0000000C )
    -------------------------------------------------------------------------
DATA16_C
  Relative segment, address: 448E - 44AC (0x1f bytes), align: 0
  Segment part 3.             Intra module refs:   SetGsmMontior
    -------------------------------------------------------------------------
DATA16_C
  Relative segment, address: 44AD - 44BF (0x13 bytes), align: 0
  Segment part 4.             Intra module refs:   SetGsmMontior

    *************************************************************************

  FILE NAME : E:\zz-cc\c0708\0708-141\Project\Debug\Obj\wireless.r43
    *************************************************************************

  FILE NAME : E:\zz-cc\c0708\0708-141\Project\Debug\Obj\wk2124.r43
    *************************************************************************

  FILE NAME : C:\Program Files (x86)\IAR Systems\Embedded Workbench 6.0 Evaluation\430\LIB\DLIB\dl430fn.r43
  LIBRARY MODULE, NAME : ?Mul32fHw

  SEGMENTS IN THE MODULE
  ======================
<CODE> 1 (was CODE)
  Relative segment, address: A65E - A78F (0x132 bytes), align: 1
  Segment part 0.
           ENTRY                   ADDRESS         REF BY
           =====                   =======         ======
           ?Mul32fHw               A65E            ?Subroutine20 (logger)
                                                   GetHumiValue (logger)

    -------------------------------------------------------------------------
  LIBRARY MODULE, NAME : ?_exit

  SEGMENTS IN THE MODULE
  ======================
<CODE> 1 (was CODE)
  Relative segment, address: C788, align: 1
  Segment part 0.
           ENTRY                   ADDRESS         REF BY
           =====                   =======         ======
           _exit                   C788            exit (?exit)
    -------------------------------------------------------------------------
<CODE> 1 (was CODE)
  Relative segment, address: C788 - C78B (0x4 bytes), align: 1
  Segment part 5.             Intra module refs:   _exit

    -------------------------------------------------------------------------
  LIBRARY MODULE, NAME : ?cstart

  SEGMENTS IN THE MODULE
  ======================
CSTACK
  Relative segment, address: 1C50, align: 1
  Segment part 1.
    -------------------------------------------------------------------------
DATA16_Z
  Relative segment, address: 174E, align: 1
  Segment part 2.
    -------------------------------------------------------------------------
DATA16_I
  Relative segment, address: 114A, align: 1
  Segment part 3.
    -------------------------------------------------------------------------
DATA16_ID
  Relative segment, address: 450A, align: 1
  Segment part 4.
    -------------------------------------------------------------------------
CSTART
  Relative segment, address: 4516 - 4519 (0x4 bytes), align: 1
  Segment part 7.
           ENTRY                   ADDRESS         REF BY
           =====                   =======         ======
           __program_start         4516            ?reset_vector (?reset_vector)
                                                   Absolute parts (?ABS_ENTRY_MOD)
           ?cstart_begin           4516 
    -------------------------------------------------------------------------
CSTART
  Relative segment, address: 451A - 4525 (0xc bytes), align: 1
  Segment part 10.
           ENTRY                   ADDRESS         REF BY
           =====                   =======         ======
           ?cstart_init_zero       451A            Download (main)
                                                   Flag (main)
                                                   Gsm (main)
                                                   Key (main)
                                                   LcdRam (lcd)
                                                   PcBsq (main)
                                                   Pt (main)
                                                   Rtc (main)
                                                   Sms (main)
                                                   StateA1 (main)
                                                   StateA2 (main)
                                                   StateB (main)
                                                   StateC (main)
                                                   Uart_0 (main)
                                                   Uart_1 (main)
    -------------------------------------------------------------------------
CSTART
  Relative segment, address: 4526 - 4535 (0x10 bytes), align: 1
  Segment part 11.
           ENTRY                   ADDRESS         REF BY
           =====                   =======         ======
           ?cstart_init_copy       4526            DateToSeconds::month (rtc)
                                                   SecondsToDate::month (rtc)
                                                   sALREADY (gsm)
                                                   sATCSQ (gsm)
                                                   sCMGS (gsm)
                                                   sCONNECT (gsm)
                                                   sCPIN_NOT (gsm)
                                                   sERROR (gsm)
                                                   sFAIL (gsm)
                                                   sLN (gsm)
                                                   sMOBILE (gsm)
                                                   sMobile (gsm)
                                                   sOK (gsm)
                                                   sServerCode (gsm)
                                                   s_0891 (gsm)
    -------------------------------------------------------------------------
CSTART
  Relative segment, address: 4536 - 453D (0x8 bytes), align: 1
  Segment part 14.            Intra module refs:   Segment part 7
           ENTRY                   ADDRESS         REF BY
           =====                   =======         ======
           ?cstart_call_main       4536 
           ?cstart_end             453E 

    -------------------------------------------------------------------------
  LIBRARY MODULE, NAME : ?reset_vector

  SEGMENTS IN THE MODULE
  ======================
RESET
  Relative segment, address: F9FE - F9FF (0x2 bytes), align: 1
  Segment part 0.
           ENTRY                   ADDRESS         REF BY
           =====                   =======         ======
           ?reset_vector           F9FE            Segment part 7 (?cstart)

    -------------------------------------------------------------------------
  LIBRARY MODULE, NAME : ?div64i

  SEGMENTS IN THE MODULE
  ======================
<CODE> 1 (was CODE)
  Relative segment, address: A51A - A5BD (0xa4 bytes), align: 1
  Segment part 5.
           ENTRY                   ADDRESS         REF BY
           =====                   =======         ======
           _Div64u                 A51A            ?Subroutine3 (adc)
                                                   AdcToValue (adc)
               CSTACK = 00000000 ( 0000001C )
    -------------------------------------------------------------------------
<CODE> 1 (was CODE)
  Relative segment, address: A5BE - A5CB (0xe bytes), align: 1
  Segment part 6.             Intra module refs:   _Div64u
                                                   _Mod64u
    -------------------------------------------------------------------------
<CODE> 1 (was CODE)
  Relative segment, address: A5CC - A5DB (0x10 bytes), align: 1
  Segment part 7.             Intra module refs:   _Div64u
                                                   _Mod64u
    -------------------------------------------------------------------------
<CODE> 1 (was CODE)
  Relative segment, address: A5DC - A5F5 (0x1a bytes), align: 1
  Segment part 8.             Intra module refs:   _Div64u
                                                   _Mod64u
    -------------------------------------------------------------------------
<CODE> 1 (was CODE)
  Relative segment, address: A5F6 - A65D (0x68 bytes), align: 1
  Segment part 2.
           ENTRY                   ADDRESS         REF BY
           =====                   =======         ======
           _Mod64u                 A5F6            ?Subroutine0 (adc)
               CSTACK = 00000000 ( 00000014 )

    -------------------------------------------------------------------------
  LIBRARY MODULE, NAME : ?Epilogue

  SEGMENTS IN THE MODULE
  ======================
<CODE> 1 (was CODE)
  Relative segment, address: C53A - C54B (0x12 bytes), align: 1
  Segment part 0.
           ENTRY                   ADDRESS         REF BY
           =====                   =======         ======
           ?Epilogue3              C544            ?Subroutine7 (logger)
                                                   BuToLcdRam (lcd)
                                                   Buf_To_PC (uart_pc)
                                                   CompBuf (main)
                                                   CurveFlashToBuf (logger)
                                                   GetChFilterAd (logger)
                                                   LcdOneAddr (lcd)
                                                   Print_SF_Data (print)
                                                   ReadPhone (uart_pc)
                                                   ReadRealValue (uart_pc)
                                                   SetCurve (uart_pc)
                                                   ascii_2_hex (gsm)
           ?Epilogue4              C542            CurveBufToFlash (logger)
                                                   EE_Read_One (logger)
                                                   GetNumFromStr (gsm)
                                                   Gprs_PrtCAP_FromEE (gsm)
                                                   Gprs_SF_Recv_Do (gsm)
                                                   LcdChNoValueA (lcd)
                                                   LcdChNoValueB (lcd)
                                                   LcdTime (lcd)
                                                   PrintTime (print)
                                                   PrintValue (print)
                                                   ReadAdc (uart_pc)
                                                   Read_GPRS_DATA_Bag (uart_pc)
                                                   RtcD10ToBcd (rtc)
                                                   get_mid_value (main)
                                                   hex_2_ascii (gsm)
                                                   rtcFromCTDstr (gsm)
           ?Epilogue5              C540            AlarmXSeek (logger)
                                                   CmdSendStart (uart_pc)
                                                   DateToSeconds (rtc)
                                                   I2C_EE_BufferRead (i2c_ee)
                                                   LcdChNoDeel (lcd)
                                                   i2c_ee_read_to_pc (i2c_ee)
                                                   i2c_ee_read_to_u0 (i2c_ee)
                                                   u16ToS5 (main)
           ?Epilogue6              C53E            Buf_To_Print (print)
                                                   GetHumiValue (logger)
                                                   GetMidAvgCC (main)
                                                   GetZvalueFromStr (gsm)
                                                   I2C_EE_BufferWrite (i2c_ee)
                                                   LoggerAlarmOneSeek (logger)
                                                   LoggerInit (logger)
                                                   PCBSQ_RecOne (logger)
                                                   ReadCurve (uart_pc)
                                                   Segment part 114 (main)
                                                   SmsRecDeel (gsm)
                                                   TCP_LG_Send_Data (logger)
           ?Epilogue7              C53C            SecondsToDate (rtc)
                                                   TCP_LG31_Send_Head (logger)
                                                   U0SmsPdu (gsm)
                                                   bbFromLHDstr (gsm)
                                                   decode (gsm)
           ?Epilogue8              C53A            ?Subroutine0 (uart_pc)
                                                   ?Subroutine3 (gsm)
                                                   AdcToValue (adc)
                                                   GetSmsUni (logger)
                                                   Gprs_SF_Send_Data (logger)
                                                   ReadLink (uart_pc)
                                                   SendIpPortFromEE (gsm)
                                                   ServerCmdSet (logger)
                                                   U0Deel (gsm)
                                                   bbFromXYZDstr (gsm)

    -------------------------------------------------------------------------
  LIBRARY MODULE, NAME : ?exit

  SEGMENTS IN THE MODULE
  ======================
<CODE> 1 (was CODE)
  Relative segment, address: C78C - C78F (0x4 bytes), align: 1
  Segment part 2.
           ENTRY                   ADDRESS         REF BY
           =====                   =======         ======
           exit                    C78C            Segment part 14 (?cstart)
               calls direct
               CSTACK = 00000000 ( 00000002 )

    -------------------------------------------------------------------------
  LIBRARY MODULE, NAME : ?Cast32f32i

  SEGMENTS IN THE MODULE
  ======================
<CODE> 1 (was CODE)
  Relative segment, address: B2D0 - B361 (0x92 bytes), align: 1
  Segment part 0.
           ENTRY                   ADDRESS         REF BY
           =====                   =======         ======
           _Cast32sto32f           B2D0 
           _Cast32uto32f           B2E4            GetHumiValue (logger)

    -------------------------------------------------------------------------
  LIBRARY MODULE, NAME : _Cast32fto32u

  SEGMENTS IN THE MODULE
  ======================
<CODE> 1 (was CODE)
  Relative segment, address: C706 - C711 (0xc bytes), align: 1
  Segment part 0.
           ENTRY                   ADDRESS         REF BY
           =====                   =======         ======
           _Cast32fto32u           C706            GetHumiValue (logger)

    -------------------------------------------------------------------------
  LIBRARY MODULE, NAME : ?FLT_Extract

  SEGMENTS IN THE MODULE
  ======================
<CODE> 1 (was CODE)
  Relative segment, address: BAE8 - BB33 (0x4c bytes), align: 1
  Segment part 0.
           ENTRY                   ADDRESS         REF BY
           =====                   =======         ======
           ?FLT_Extract            BAE8            _Cast32fto32u (_Cast32fto32u)

    -------------------------------------------------------------------------
  LIBRARY MODULE, NAME : _Div32f

  SEGMENTS IN THE MODULE
  ======================
<CODE> 1 (was CODE)
  Relative segment, address: A790 - A8BF (0x130 bytes), align: 1
  Segment part 0.
           ENTRY                   ADDRESS         REF BY
           =====                   =======         ======
           _Div32f                 A790            GetHumiValue (logger)

    -------------------------------------------------------------------------
  LIBRARY MODULE, NAME : _Add32f

  SEGMENTS IN THE MODULE
  ======================
<CODE> 1 (was CODE)
  Relative segment, address: A3B8 - A519 (0x162 bytes), align: 1
  Segment part 0.
           ENTRY                   ADDRESS         REF BY
           =====                   =======         ======
           _Add32f                 A3BC            GetHumiValue (logger)
           _Sub32f                 A3B8            GetHumiValue (logger)

    -------------------------------------------------------------------------
  LIBRARY MODULE, NAME : ?DivMod816u

  SEGMENTS IN THE MODULE
  ======================
<CODE> 1 (was CODE)
  Relative segment, address: C36A - C385 (0x1c bytes), align: 1
  Segment part 0.
           ENTRY                   ADDRESS         REF BY
           =====                   =======         ======
           ?DivMod8u               C36A            ?Subroutine0 (rtc)
                                                   ?Subroutine10 (logger)
                                                   ?Subroutine40 (lcd)
                                                   ?Subroutine41 (lcd)
                                                   ?Subroutine52 (lcd)
           ?DivMod16u              C36E            ?Subroutine12 (gsm)
                                                   ?Subroutine19 (main)
                                                   ?Subroutine30 (lcd)
                                                   ?Subroutine37 (logger)
                                                   ?Subroutine41 (print)
                                                   ?Subroutine44 (print)
                                                   ?Subroutine54 (lcd)
                                                   ?Subroutine54 (logger)
                                                   AdcToValue (adc)
                                                   LoggerInit (logger)
                                                   Segment part 0 (?DivMod816s)
                                                   Segment part 205 (logger)
                                                   Segment part 29 (lcd)
                                                   Segment part 47 (lcd)
                                                   Segment part 98 (main)
                                                   U0SmsLen (gsm)
                                                   decode (gsm)

    -------------------------------------------------------------------------
  LIBRARY MODULE, NAME : ?DivMod816s

  SEGMENTS IN THE MODULE
  ======================
<CODE> 1 (was CODE)
  Relative segment, address: BFFE - C031 (0x34 bytes), align: 1
  Segment part 0.
           ENTRY                   ADDRESS         REF BY
           =====                   =======         ======
           ?DivMod8s               BFFE 
           ?DivMod16s              C002            GetMidCC (main)
                                                   LcdChNoDeel (lcd)
                                                   SampleRealDo (logger)
                                                   Segment part 55 (lcd)

    -------------------------------------------------------------------------
  LIBRARY MODULE, NAME : ?DivMod32u

  SEGMENTS IN THE MODULE
  ======================
<CODE> 1 (was CODE)
  Relative segment, address: BEEE - BF25 (0x38 bytes), align: 1
  Segment part 0.
           ENTRY                   ADDRESS         REF BY
           =====                   =======         ======
           ?DivMod32u              BEEE            ?Subroutine21 (main)
                                                   ?Subroutine21 (print)
                                                   ?Subroutine56 (logger)
                                                   ?Subroutine6 (uart_pc)
                                                   ADC12ISR (it)
                                                   GetMidAvgCC (main)
                                                   Gprs_PrtCAP_FromEE (gsm)
                                                   PCBSQ_Record (logger)
                                                   PrintDeel (print)
                                                   Read_GPRS_DATA_Infor (uart_pc)
                                                   Segment part 11 (rtc)
                                                   Segment part 116 (main)
                                                   Segment part 13 (rtc)
                                                   Segment part 21 (uart_pc)
                                                   Segment part 279 (logger)

    -------------------------------------------------------------------------
  LIBRARY MODULE, NAME : ?ShiftLeft16

  SEGMENTS IN THE MODULE
  ======================
<CODE> 1 (was CODE)
  Relative segment, address: C736 - C741 (0xc bytes), align: 1
  Segment part 0.
           ENTRY                   ADDRESS         REF BY
           =====                   =======         ======
           ?ShiftLeft16            C736            ?Subroutine36 (lcd)
                                                   AdcToValue (adc)
                                                   GetSmsUni (logger)
                                                   LoggerAlarmOneSeek (logger)
                                                   LoggerCalculateValue (logger)
                                                   SeeChAlarm (logger)

    -------------------------------------------------------------------------
  LIBRARY MODULE, NAME : ?ShiftLeft16_n

  SEGMENTS IN THE MODULE
  ======================
<CODE> 1 (was CODE)
  Relative segment, address: C61C - C62B (0x10 bytes), align: 1
  Segment part 0.
           ENTRY                   ADDRESS         REF BY
           =====                   =======         ======
           ?ShiftLeft16_7          C61C 
           ?ShiftLeft16_6          C61E            decode (gsm)
           ?ShiftLeft16_5          C620            decode (gsm)
           ?ShiftLeft16_4          C622            ?Subroutine0 (rtc)
                                                   ascii_2_hex (gsm)
                                                   decode (gsm)
           ?ShiftLeft16_3          C624            ?Subroutine19 (logger)
                                                   GetChFilterAd (logger)
                                                   PrintDeel (print)
                                                   decode (gsm)

    -------------------------------------------------------------------------
  LIBRARY MODULE, NAME : ?ShiftLeft32_8n

  SEGMENTS IN THE MODULE
  ======================
<CODE> 1 (was CODE)
  Relative segment, address: C72A - C735 (0xc bytes), align: 1
  Segment part 6.
           ENTRY                   ADDRESS         REF BY
           =====                   =======         ======
           ?ShiftLeft32_8          C72A            ?Subroutine12 (logger)
                                                   ?Subroutine12 (uart_pc)
                                                   Buf_To_Print (print)
                                                   TCP_LG_Send_Data (logger)

    -------------------------------------------------------------------------
  LIBRARY MODULE, NAME : ?ShiftRight816s

  SEGMENTS IN THE MODULE
  ======================
<CODE> 1 (was CODE)
  Relative segment, address: C68A - C697 (0xe bytes), align: 1
  Segment part 0.
           ENTRY                   ADDRESS         REF BY
           =====                   =======         ======
           ?ShiftRight8s           C68A 
           ?ShiftRight16s          C68C            ?Subroutine62 (logger)
                                                   AdcToValue (adc)
                                                   ReadRealValue (uart_pc)

    -------------------------------------------------------------------------
  LIBRARY MODULE, NAME : ?ShiftRight16u_n

  SEGMENTS IN THE MODULE
  ======================
<CODE> 1 (was CODE)
  Relative segment, address: C4AC - C4AF (0x4 bytes), align: 1
  Segment part 1.
           ENTRY                   ADDRESS         REF BY
           =====                   =======         ======
           ?ShiftRight16u_6        C4AC            SmsPowReady (gsm)
                                                   decode (gsm)
    -------------------------------------------------------------------------
<CODE> 1 (was CODE)
  Relative segment, address: C4B0 - C4B3 (0x4 bytes), align: 1
  Segment part 2.             Intra module refs:   ?ShiftRight16u_6
           ENTRY                   ADDRESS         REF BY
           =====                   =======         ======
           ?ShiftRight16u_5        C4B0            decode (gsm)
    -------------------------------------------------------------------------
<CODE> 1 (was CODE)
  Relative segment, address: C4B4 - C4B7 (0x4 bytes), align: 1
  Segment part 3.             Intra module refs:   ?ShiftRight16u_5
           ENTRY                   ADDRESS         REF BY
           =====                   =======         ======
           ?ShiftRight16u_4        C4B4            ?Subroutine13 (logger)
                                                   ?Subroutine3 (rtc)
                                                   ?Subroutine42 (print)
                                                   LcdTime (lcd)
                                                   SetReStart (uart_pc)
                                                   decode (gsm)
                                                   hex_2_ascii (gsm)
    -------------------------------------------------------------------------
<CODE> 1 (was CODE)
  Relative segment, address: C4B8 - C4C1 (0xa bytes), align: 1
  Segment part 4.             Intra module refs:   ?ShiftRight16u_4
           ENTRY                   ADDRESS         REF BY
           =====                   =======         ======
           ?ShiftRight16u_3        C4B8            decode (gsm)

    -------------------------------------------------------------------------
  LIBRARY MODULE, NAME : ?memcpy

  SEGMENTS IN THE MODULE
  ======================
<CODE> 1 (was CODE)
  Relative segment, address: C5B8 - C5C9 (0x12 bytes), align: 1
  Segment part 2.
           ENTRY                   ADDRESS         REF BY
           =====                   =======         ======
           memcpy                  C5B8            __data16_memcpy (?memzero)
               CSTACK = 00000000 ( 00000002 )

    -------------------------------------------------------------------------
  LIBRARY MODULE, NAME : ?CopyMemoryBytes

  SEGMENTS IN THE MODULE
  ======================
<CODE> 1 (was CODE)
  Relative segment, address: C62C - C63B (0x10 bytes), align: 1
  Segment part 0.
           ENTRY                   ADDRESS         REF BY
           =====                   =======         ======
           ?CopyMemoryBytes        C62C            hex_2_ascii (gsm)

    -------------------------------------------------------------------------
  LIBRARY MODULE, NAME : ?CopyMemoryWords

  SEGMENTS IN THE MODULE
  ======================
<CODE> 1 (was CODE)
  Relative segment, address: C63C - C64B (0x10 bytes), align: 1
  Segment part 0.
           ENTRY                   ADDRESS         REF BY
           =====                   =======         ======
           ?CopyMemoryWords        C63C            EEToStateA2 (logger)
                                                   EEToStateB (logger)
                                                   SS_To_BCD (rtc)
                                                   curve_shift (logger)

    -------------------------------------------------------------------------
  LIBRARY MODULE, NAME : ?memzero

  SEGMENTS IN THE MODULE
  ======================
<CODE> 1 (was CODE)
  Relative segment, address: C582 - C593 (0x12 bytes), align: 1
  Segment part 4.
           ENTRY                   ADDRESS         REF BY
           =====                   =======         ======
           __data16_memzero        C582            ?cstart_init_zero (?cstart)
               CSTACK = 00000000 ( 00000002 )
    -------------------------------------------------------------------------
<CODE> 1 (was CODE)
  Relative segment, address: C794 - C797 (0x4 bytes), align: 1
  Segment part 3.
           ENTRY                   ADDRESS         REF BY
           =====                   =======         ======
           __data16_memcpy         C794            ?cstart_init_copy (?cstart)
               calls direct
               CSTACK = 00000000 ( 00000002 )

    -------------------------------------------------------------------------
  LIBRARY MODULE, NAME : ?mul32u32uto64ihw

  SEGMENTS IN THE MODULE
  ======================
<CODE> 1 (was CODE)
  Relative segment, address: B574 - B5EF (0x7c bytes), align: 1
  Segment part 2.             Intra module refs:   _Mul32u32uto64iHw
           LOCAL                   ADDRESS         
           =====                   =======         
           mul                     B574 
               monitor function
               CSTACK = 00000000 ( 00000014 )
    -------------------------------------------------------------------------
<CODE> 1 (was CODE)
  Relative segment, address: C790 - C793 (0x4 bytes), align: 1
  Segment part 3.
           ENTRY                   ADDRESS         REF BY
           =====                   =======         ======
           _Mul32u32uto64iHw       C790            AdcToValue (adc)
               calls direct
               CSTACK = 00000000 ( 00000002 )

    -------------------------------------------------------------------------
  LIBRARY MODULE, NAME : ?mul64ihw

  SEGMENTS IN THE MODULE
  ======================
<CODE> 1 (was CODE)
  Relative segment, address: AF3C - AFFD (0xc2 bytes), align: 1
  Segment part 2.
           ENTRY                   ADDRESS         REF BY
           =====                   =======         ======
           _Mul64iHw               AF3C            AdcToValue (adc)
               monitor function
               CSTACK = 00000000 ( 0000001A )

    -------------------------------------------------------------------------
  LIBRARY MODULE, NAME : ?Mul8Hw

  SEGMENTS IN THE MODULE
  ======================
<CODE> 1 (was CODE)
  Relative segment, address: C386 - C3A1 (0x1c bytes), align: 1
  Segment part 0.
           ENTRY                   ADDRESS         REF BY
           =====                   =======         ======
           ?Mul8Hw                 C386 
           ?Mul16Hw                C38A 
           ?Mul16to32uHw           C38A            LoggerInit (logger)
                                                   PCBSQ_RecOne (logger)

    -------------------------------------------------------------------------
  LIBRARY MODULE, NAME : ?Mul32Hw

  SEGMENTS IN THE MODULE
  ======================
<CODE> 1 (was CODE)
  Relative segment, address: C0F2 - C11F (0x2e bytes), align: 1
  Segment part 0.
           ENTRY                   ADDRESS         REF BY
           =====                   =======         ======
           ?Mul32Hw                C0F2            ADC12ISR (it)
                                                   DateToSeconds (rtc)
                                                   GetBatt (logger)
                                                   Gprs_PrtCAP_FromEE (gsm)
                                                   LoggerInit (logger)
                                                   Segment part 179 (logger)
                                                   Segment part 19 (rtc)

    -------------------------------------------------------------------------
  LIBRARY MODULE, NAME : ?__exit

  SEGMENTS IN THE MODULE
  ======================
<CODE> 1 (was CODE)
  Relative segment, address: C7C0 - C7C1 (0x2 bytes), align: 1
  Segment part 2.
           ENTRY                   ADDRESS         REF BY
           =====                   =======         ======
           __exit                  C7C0            Segment part 5 (?_exit)
                                                   _exit (?_exit)
               not allocated function




                ****************************************
                *                                      *
                *              CALL GRAPH              *
                *                                      *
                ****************************************

  ->Sub-tree of type: Interrupt function tree that does not make
                    : indirect calls
                             CSTACK
    | Stack used (prev) :  00000000
  01  USCI0RX_ISR
      | Stack used (prev) :  00000000
      | + function block  :  00000006
  <-Sub-tree of type: Interrupt function tree that does not make
                    : indirect calls
    | Stack used          :  00000006


  ->Sub-tree of type: Interrupt function tree that does not make
                    : indirect calls
                             CSTACK
    | Stack used (prev) :  00000006
  03      KeyIntClr
          | Stack used (prev) :  00000006
          | + function block  :  00000002
  02    KeyIsrDo
        | Stack used (prev) :  00000008
        | + function block  :  00000002
  01  port1_isr
      | Stack used (prev) :  0000000A
      | + function block  :  0000000C
  <-Sub-tree of type: Interrupt function tree that does not make
                    : indirect calls
    | Stack used          :  00000016


  ->Sub-tree of type: Interrupt function tree that does not make
                    : indirect calls
                             CSTACK
    | Stack used (prev) :  00000016
  01  comaratora__isr
      | Stack used (prev) :  00000016
      | + function block  :  00000004
  <-Sub-tree of type: Interrupt function tree that does not make
                    : indirect calls
    | Stack used          :  0000001A


  ->Sub-tree of type: Interrupt function tree that does not make
                    : indirect calls
                             CSTACK
    | Stack used (prev) :  0000001A
  01  timera0_isr
      | Stack used (prev) :  0000001A
      | + function block  :  00000004
  <-Sub-tree of type: Interrupt function tree that does not make
                    : indirect calls
    | Stack used          :  0000001E


  ->Sub-tree of type: Interrupt function tree that does not make
                    : indirect calls
                             CSTACK
    | Stack used (prev) :  0000001E
  01  wdt_isr
      | Stack used (prev) :  0000001E
      | + function block  :  00000004
  <-Sub-tree of type: Interrupt function tree that does not make
                    : indirect calls
    | Stack used          :  00000022


  ->Sub-tree of type: Interrupt function tree that does not make
                    : indirect calls
                             CSTACK
    | Stack used (prev) :  00000022
  01  nmi_
      | Stack used (prev) :  00000022
      | + function block  :  00000004
  <-Sub-tree of type: Interrupt function tree that does not make
                    : indirect calls
    | Stack used          :  00000026


  ->Sub-tree of type: Interrupt function tree that does not make
                    : indirect calls
                             CSTACK
    | Stack used (prev) :  00000026
  02    GetBatt
        | Stack used (prev) :  00000026
        | + function block  :  00000002
  05          BuSendByte
              | Stack used (prev) :  00000026
              | + function block  :  00000002
  05          BuSendByte
              | Stack used (prev) :  00000026
              | + function block  :  00000002
              |  Already listed
  05          BuSendByte
              | Stack used (prev) :  00000026
              | + function block  :  00000002
              |  Already listed
  05          BuSendByte
              | Stack used (prev) :  00000026
              | + function block  :  00000002
              |  Already listed
  04        LcdOneAddr
            | Stack used (prev) :  00000028
            | + function block  :  00000008
  03      BuToLcdRam
          | Stack used (prev) :  00000030
          | + function block  :  00000008
  02    LcdBatOn
        | Stack used (prev) :  00000038
        | + function block  :  00000002
  01  ADC12ISR
      | Stack used (prev) :  0000003A
      | + function block  :  00000012
  <-Sub-tree of type: Interrupt function tree that does not make
                    : indirect calls
    | Stack used          :  0000004C


  ->Sub-tree of type: Interrupt function tree that does not make
                    : indirect calls
                             CSTACK
    | Stack used (prev) :  0000004C
  02    BellOne
        | Stack used (prev) :  0000004C
        | + function block  :  00000002
  03      KeyIntSet
          | Stack used (prev) :  0000004C
          | + function block  :  00000002
  02    KeyXiaoDou
        | Stack used (prev) :  0000004E
        | + function block  :  00000002
  01  Timer_B
      | Stack used (prev) :  00000050
      | + function block  :  0000000C
  <-Sub-tree of type: Interrupt function tree that does not make
                    : indirect calls
    | Stack used          :  0000005C


  ->Sub-tree of type: Interrupt function tree that does not make
                    : indirect calls
                             CSTACK
    | Stack used (prev) :  0000005C
  01  timerb0_isr
      | Stack used (prev) :  0000005C
      | + function block  :  00000004
  <-Sub-tree of type: Interrupt function tree that does not make
                    : indirect calls
    | Stack used          :  00000060


  ->Sub-tree of type: Interrupt function tree that does not make
                    : indirect calls
                             CSTACK
    | Stack used (prev) :  00000060
  02    U1_RecErr
        | Stack used (prev) :  00000060
        | + function block  :  00000002
  01  Timer_A
      | Stack used (prev) :  00000062
      | + function block  :  0000000C
  <-Sub-tree of type: Interrupt function tree that does not make
                    : indirect calls
    | Stack used          :  0000006E


  ->Sub-tree of type: Interrupt function tree that does not make
                    : indirect calls
                             CSTACK
    | Stack used (prev) :  0000006E
  02    U1_RecErr
        | Stack used (prev) :  00000060
        | + function block  :  00000002
        |  Already listed
  01  USCI1RX_ISR
      | Stack used (prev) :  0000006E
      | + function block  :  0000000C
  <-Sub-tree of type: Interrupt function tree that does not make
                    : indirect calls
    | Stack used          :  0000007A


  ->Sub-tree of type: Interrupt function tree that does not make
                    : indirect calls
                             CSTACK
    | Stack used (prev) :  0000007A
  01  port2_isr
      | Stack used (prev) :  0000007A
      | + function block  :  00000004
  <-Sub-tree of type: Interrupt function tree that does not make
                    : indirect calls
    | Stack used          :  0000007E


  ->Sub-tree of type: Interrupt function tree that does not make
                    : indirect calls
                             CSTACK
    | Stack used (prev) :  0000007E
  01  usciab0tx_isr
      | Stack used (prev) :  0000007E
      | + function block  :  00000004
  <-Sub-tree of type: Interrupt function tree that does not make
                    : indirect calls
    | Stack used          :  00000082


  ->Sub-tree of type: Interrupt function tree that does not make
                    : indirect calls
                             CSTACK
    | Stack used (prev) :  00000082
  01  usciab1tx_isr
      | Stack used (prev) :  00000082
      | + function block  :  00000004
  <-Sub-tree of type: Interrupt function tree that does not make
                    : indirect calls
    | Stack used          :  00000086


  ->Sub-tree of type: Interrupt function tree that does not make
                    : indirect calls
                             CSTACK
    | Stack used (prev) :  00000086
  01  resered20_isr
      | Stack used (prev) :  00000086
      | + function block  :  00000004
  <-Sub-tree of type: Interrupt function tree that does not make
                    : indirect calls
    | Stack used          :  0000008A


  ->Sub-tree of type: Interrupt function tree that does not make
                    : indirect calls
                             CSTACK
    | Stack used (prev) :  0000008A
  01  reserved0_isr
      | Stack used (prev) :  0000008A
      | + function block  :  00000004
  <-Sub-tree of type: Interrupt function tree that does not make
                    : indirect calls
    | Stack used          :  0000008E


  ->Sub-tree of type: Interrupt function tree that does not make
                    : indirect calls
                             CSTACK
    | Stack used (prev) :  0000008E
  01  reserved1_isr
      | Stack used (prev) :  0000008E
      | + function block  :  00000004
  <-Sub-tree of type: Interrupt function tree that does not make
                    : indirect calls
    | Stack used          :  00000092


  ->Sub-tree of type: Interrupt function tree that does not make
                    : indirect calls
                             CSTACK
    | Stack used (prev) :  00000092
  01  reserved2_isr
      | Stack used (prev) :  00000092
      | + function block  :  00000004
  <-Sub-tree of type: Interrupt function tree that does not make
                    : indirect calls
    | Stack used          :  00000096


  ->Sub-tree of type: Interrupt function tree that does not make
                    : indirect calls
                             CSTACK
    | Stack used (prev) :  00000096
  01  reserved3_isr
      | Stack used (prev) :  00000096
      | + function block  :  00000004
  <-Sub-tree of type: Interrupt function tree that does not make
                    : indirect calls
    | Stack used          :  0000009A


  ->Sub-tree of type: Interrupt function tree that does not make
                    : indirect calls
                             CSTACK
    | Stack used (prev) :  0000009A
  01  reserved4_isr
      | Stack used (prev) :  0000009A
      | + function block  :  00000004
  <-Sub-tree of type: Interrupt function tree that does not make
                    : indirect calls
    | Stack used          :  0000009E


  ->Sub-tree of type: Interrupt function tree that does not make
                    : indirect calls
                             CSTACK
    | Stack used (prev) :  0000009E
  01  reserved5_isr
      | Stack used (prev) :  0000009E
      | + function block  :  00000004
  <-Sub-tree of type: Interrupt function tree that does not make
                    : indirect calls
    | Stack used          :  000000A2


  ->Sub-tree of type: Interrupt function tree that does not make
                    : indirect calls
                             CSTACK
    | Stack used (prev) :  000000A2
  01  reserved6_isr
      | Stack used (prev) :  000000A2
      | + function block  :  00000004
  <-Sub-tree of type: Interrupt function tree that does not make
                    : indirect calls
    | Stack used          :  000000A6


  ->Sub-tree of type: Interrupt function tree that does not make
                    : indirect calls
                             CSTACK
    | Stack used (prev) :  000000A6
  01  reserved7_isr
      | Stack used (prev) :  000000A6
      | + function block  :  00000004
  <-Sub-tree of type: Interrupt function tree that does not make
                    : indirect calls
    | Stack used          :  000000AA


  ->Sub-tree of type: Interrupt function tree that does not make
                    : indirect calls
                             CSTACK
    | Stack used (prev) :  000000AA
  01  reserved8_isr
      | Stack used (prev) :  000000AA
      | + function block  :  00000004
  <-Sub-tree of type: Interrupt function tree that does not make
                    : indirect calls
    | Stack used          :  000000AE


  ->Sub-tree of type: Interrupt function tree that does not make
                    : indirect calls
                             CSTACK
    | Stack used (prev) :  000000AE
  01  reserved9_isr
      | Stack used (prev) :  000000AE
      | + function block  :  00000004
  <-Sub-tree of type: Interrupt function tree that does not make
                    : indirect calls
    | Stack used          :  000000B2


  ->Sub-tree of type: Interrupt function tree that does not make
                    : indirect calls
                             CSTACK
    | Stack used (prev) :  000000B2
  01  reserved10_isr
      | Stack used (prev) :  000000B2
      | + function block  :  00000004
  <-Sub-tree of type: Interrupt function tree that does not make
                    : indirect calls
    | Stack used          :  000000B6


  ->Sub-tree of type: Interrupt function tree that does not make
                    : indirect calls
                             CSTACK
    | Stack used (prev) :  000000B6
  01  reserved11_isr
      | Stack used (prev) :  000000B6
      | + function block  :  00000004
  <-Sub-tree of type: Interrupt function tree that does not make
                    : indirect calls
    | Stack used          :  000000BA


  ->Sub-tree of type: Interrupt function tree that does not make
                    : indirect calls
                             CSTACK
    | Stack used (prev) :  000000BA
  01  reserved12_isr
      | Stack used (prev) :  000000BA
      | + function block  :  00000004
  <-Sub-tree of type: Interrupt function tree that does not make
                    : indirect calls
    | Stack used          :  000000BE


  ->Sub-tree of type: Interrupt function tree that does not make
                    : indirect calls
                             CSTACK
    | Stack used (prev) :  000000BE
  01  reserved13_isr
      | Stack used (prev) :  000000BE
      | + function block  :  00000004
  <-Sub-tree of type: Interrupt function tree that does not make
                    : indirect calls
    | Stack used          :  000000C2


  ->Sub-tree of type: Interrupt function tree that does not make
                    : indirect calls
                             CSTACK
    | Stack used (prev) :  000000C2
  01  reserved14_isr
      | Stack used (prev) :  000000C2
      | + function block  :  00000004
  <-Sub-tree of type: Interrupt function tree that does not make
                    : indirect calls
    | Stack used          :  000000C6


  ->Sub-tree of type: Interrupt function tree that does not make
                    : indirect calls
                             CSTACK
    | Stack used (prev) :  000000C6
  01  reserved15_isr
      | Stack used (prev) :  000000C6
      | + function block  :  00000004
  <-Sub-tree of type: Interrupt function tree that does not make
                    : indirect calls
    | Stack used          :  000000CA


  ->Sub-tree of type: Indirectly called function tree that does not make
                    : indirect calls (Is not an interrupt and is not flagged
                    : as not overlayable)
                             CSTACK
    | Stack used (prev) :  000000CA
  01  memcpy
      | Stack used (prev) :  000000CA
      | + function block  :  00000002
  <-Sub-tree of type: Indirectly called function tree that does not make
                    : indirect calls (Is not an interrupt and is not flagged
                    : as not overlayable)
    | Stack used          :  000000CC


  ->Sub-tree of type: Function tree
                             CSTACK
    | Stack used (prev) :  000000CC
  01  GetJY
      | Stack used (prev) :  000000CC
      | + function block  :  00000002
  <-Sub-tree of type: Function tree
    | Stack used          :  000000CE


  ->Sub-tree of type: Function tree
                             CSTACK
    | Stack used (prev) :  000000CE
  03      U1SendByte
          | Stack used (prev) :  000000CE
          | + function block  :  00000002
  02    Buf_To_PC
        | Stack used (prev) :  000000D0
        | + function block  :  00000008
  05          RtcD10ToBcd
              | Stack used (prev) :  000000CE
              | + function block  :  0000000A
  05          SecondsToDate
              | Stack used (prev) :  000000CE
              | + function block  :  00000010
  04        SS_To_BCD
            | Stack used (prev) :  000000DE
            | + function block  :  00000012
  04        U1SendByte
            | Stack used (prev) :  000000CE
            | + function block  :  00000002
            |  Already listed
  03      PrintTime
          | Stack used (prev) :  000000F0
          | + function block  :  00000018
  05          U1SendByte
              | Stack used (prev) :  000000CE
              | + function block  :  00000002
              |  Already listed
  04        U1SendString
            | Stack used (prev) :  000000D0
            | + function block  :  00000002
  04        U1SendByte
            | Stack used (prev) :  000000CE
            | + function block  :  00000002
            |  Already listed
  03      PrintValue
          | Stack used (prev) :  000000D2
          | + function block  :  0000000A
  03      U1SendByte
          | Stack used (prev) :  000000CE
          | + function block  :  00000002
          |  Already listed
  03      AlarmXSeek
          | Stack used (prev) :  000000CE
          | + function block  :  0000000C
  02    Buf_To_Print
        | Stack used (prev) :  00000108
        | + function block  :  0000000E
  05          U1SendString
              | Stack used (prev) :  000000D0
              | + function block  :  00000002
              |  Already listed
  05          ComSendH
              | Stack used (prev) :  000000CE
              | + function block  :  00000002
  05          ComSendL
              | Stack used (prev) :  000000CE
              | + function block  :  00000002
  06            U0SendByte
                | Stack used (prev) :  000000CE
                | + function block  :  00000002
  05          UxSendByte
              | Stack used (prev) :  000000D0
              | + function block  :  00000004
  05          UxSendByte
              | Stack used (prev) :  000000D0
              | + function block  :  00000004
              |  Already listed
  05          UxSendByte
              | Stack used (prev) :  000000D0
              | + function block  :  00000004
              |  Already listed
  05          UxSendByte
              | Stack used (prev) :  000000D0
              | + function block  :  00000004
              |  Already listed
  05          UxSendByte
              | Stack used (prev) :  000000D0
              | + function block  :  00000004
              |  Already listed
  05          UxSendByte
              | Stack used (prev) :  000000D0
              | + function block  :  00000004
              |  Already listed
  05          UxSendByte
              | Stack used (prev) :  000000D0
              | + function block  :  00000004
              |  Already listed
  05          UxSendByte
              | Stack used (prev) :  000000D0
              | + function block  :  00000004
              |  Already listed
  05          UxSendByte
              | Stack used (prev) :  000000D0
              | + function block  :  00000004
              |  Already listed
  05          UxSendByte
              | Stack used (prev) :  000000D0
              | + function block  :  00000004
              |  Already listed
  05          UxSendByte
              | Stack used (prev) :  000000D0
              | + function block  :  00000004
              |  Already listed
  06            U0SendByte
                | Stack used (prev) :  000000CE
                | + function block  :  00000002
                |  Already listed
  06            I2cStart
                | Stack used (prev) :  000000CE
                | + function block  :  00000002
  06            I2cStart
                | Stack used (prev) :  000000CE
                | + function block  :  00000002
                |  Already listed
  06            I2cSendByte
                | Stack used (prev) :  000000CE
                | + function block  :  00000002
  06            I2cSendByte
                | Stack used (prev) :  000000CE
                | + function block  :  00000002
                |  Already listed
  06            I2cSendByte
                | Stack used (prev) :  000000CE
                | + function block  :  00000002
                |  Already listed
  06            I2cSendByte
                | Stack used (prev) :  000000CE
                | + function block  :  00000002
                |  Already listed
  06            I2cRecByte
                | Stack used (prev) :  000000CE
                | + function block  :  00000004
  06            I2cAck
                | Stack used (prev) :  000000CE
                | + function block  :  00000002
  06            I2cAck
                | Stack used (prev) :  000000CE
                | + function block  :  00000002
                |  Already listed
  06            I2cStop
                | Stack used (prev) :  000000CE
                | + function block  :  00000002
  05          i2c_ee_read_to_u0
              | Stack used (prev) :  000000D2
              | + function block  :  0000000C
  04        TCP_LG31_Send_Head
            | Stack used (prev) :  000000DE
            | + function block  :  00000010
  05          RtcD10ToBcd
              | Stack used (prev) :  000000CE
              | + function block  :  0000000A
              |  Already listed
  05          SecondsToDate
              | Stack used (prev) :  000000CE
              | + function block  :  00000010
              |  Already listed
  05          DelayMs
              | Stack used (prev) :  000000CE
              | + function block  :  00000002
  06            U1SendByte
                | Stack used (prev) :  000000CE
                | + function block  :  00000002
                |  Already listed
  06            U1SendByte
                | Stack used (prev) :  000000CE
                | + function block  :  00000002
                |  Already listed
  06            U1SendByte
                | Stack used (prev) :  000000CE
                | + function block  :  00000002
                |  Already listed
  06            U1SendByte
                | Stack used (prev) :  000000CE
                | + function block  :  00000002
                |  Already listed
  06            U1SendByte
                | Stack used (prev) :  000000CE
                | + function block  :  00000002
                |  Already listed
  06            U1SendByte
                | Stack used (prev) :  000000CE
                | + function block  :  00000002
                |  Already listed
  06            U1SendByte
                | Stack used (prev) :  000000CE
                | + function block  :  00000002
                |  Already listed
  05          U1SendValue
              | Stack used (prev) :  000000D0
              | + function block  :  0000000E
  05          U1SendByte
              | Stack used (prev) :  000000CE
              | + function block  :  00000002
              |  Already listed
  05          ComSendH
              | Stack used (prev) :  000000CE
              | + function block  :  00000002
              |  Already listed
  05          ComSendL
              | Stack used (prev) :  000000CE
              | + function block  :  00000002
              |  Already listed
  05          UxSendByte
              | Stack used (prev) :  000000D0
              | + function block  :  00000004
              |  Already listed
  05          UxSendByte
              | Stack used (prev) :  000000D0
              | + function block  :  00000004
              |  Already listed
  05          UxSendByte
              | Stack used (prev) :  000000D0
              | + function block  :  00000004
              |  Already listed
  05          UxSendByte
              | Stack used (prev) :  000000D0
              | + function block  :  00000004
              |  Already listed
  05          UxSendByte
              | Stack used (prev) :  000000D0
              | + function block  :  00000004
              |  Already listed
  05          UxSendByte
              | Stack used (prev) :  000000D0
              | + function block  :  00000004
              |  Already listed
  05          UxSendByte
              | Stack used (prev) :  000000D0
              | + function block  :  00000004
              |  Already listed
  05          UxSendByte
              | Stack used (prev) :  000000D0
              | + function block  :  00000004
              |  Already listed
  05          UxSendByte
              | Stack used (prev) :  000000D0
              | + function block  :  00000004
              |  Already listed
  04        TCP_LG_Send_Data
            | Stack used (prev) :  000000DE
            | + function block  :  0000001C
  03      GprsUpSend
          | Stack used (prev) :  000000FA
          | + function block  :  00000006
  02    Buf_To_Gprs
        | Stack used (prev) :  00000100
        | + function block  :  00000002
  01  BufTx
      | Stack used (prev) :  00000116
      | + function block  :  00000004
  <-Sub-tree of type: Function tree
    | Stack used          :  0000011A


  ->Sub-tree of type: Function tree
                             CSTACK
    | Stack used (prev) :  0000011A
  03      I2cStart
          | Stack used (prev) :  000000CE
          | + function block  :  00000002
          |  Already listed
  03      I2cStart
          | Stack used (prev) :  000000CE
          | + function block  :  00000002
          |  Already listed
  03      I2cSendByte
          | Stack used (prev) :  000000CE
          | + function block  :  00000002
          |  Already listed
  03      I2cSendByte
          | Stack used (prev) :  000000CE
          | + function block  :  00000002
          |  Already listed
  03      I2cSendByte
          | Stack used (prev) :  000000CE
          | + function block  :  00000002
          |  Already listed
  03      I2cSendByte
          | Stack used (prev) :  000000CE
          | + function block  :  00000002
          |  Already listed
  03      I2cRecByte
          | Stack used (prev) :  000000CE
          | + function block  :  00000004
          |  Already listed
  03      I2cAck
          | Stack used (prev) :  000000CE
          | + function block  :  00000002
          |  Already listed
  03      I2cAck
          | Stack used (prev) :  000000CE
          | + function block  :  00000002
          |  Already listed
  03      I2cStop
          | Stack used (prev) :  000000CE
          | + function block  :  00000002
          |  Already listed
  02    I2C_EE_BufferRead
        | Stack used (prev) :  0000011A
        | + function block  :  0000000C
  01  EE_Read_One
      | Stack used (prev) :  00000126
      | + function block  :  0000000A
  <-Sub-tree of type: Function tree
    | Stack used          :  00000130


  ->Sub-tree of type: Function tree
                             CSTACK
    | Stack used (prev) :  00000130
  06            U1SendByte
                | Stack used (prev) :  000000CE
                | + function block  :  00000002
                |  Already listed
  05          CmdSendEnd
              | Stack used (prev) :  00000130
              | + function block  :  00000002
  06            U1SendByte
                | Stack used (prev) :  000000CE
                | + function block  :  00000002
                |  Already listed
  05          CmdSendStart
              | Stack used (prev) :  00000130
              | + function block  :  0000000C
  05          U1SendByte
              | Stack used (prev) :  000000CE
              | + function block  :  00000002
              |  Already listed
  04        SetAdcMode
            | Stack used (prev) :  0000013C
            | + function block  :  00000004
  05          CmdSendEnd
              | Stack used (prev) :  00000130
              | + function block  :  00000002
              |  Already listed
  05          CmdSendStart
              | Stack used (prev) :  00000130
              | + function block  :  0000000C
              |  Already listed
  05          U1SendByte
              | Stack used (prev) :  000000CE
              | + function block  :  00000002
              |  Already listed
  09                  I2cStart
                      | Stack used (prev) :  000000CE
                      | + function block  :  00000002
                      |  Already listed
  09                  I2cStart
                      | Stack used (prev) :  000000CE
                      | + function block  :  00000002
                      |  Already listed
  09                  I2cSendByte
                      | Stack used (prev) :  000000CE
                      | + function block  :  00000002
                      |  Already listed
  09                  I2cSendByte
                      | Stack used (prev) :  000000CE
                      | + function block  :  00000002
                      |  Already listed
  09                  I2cSendByte
                      | Stack used (prev) :  000000CE
                      | + function block  :  00000002
                      |  Already listed
  09                  I2cStop
                      | Stack used (prev) :  000000CE
                      | + function block  :  00000002
                      |  Already listed
  09                  I2cStop
                      | Stack used (prev) :  000000CE
                      | + function block  :  00000002
                      |  Already listed
  08                I2C_EE_BufferWrite
                    | Stack used (prev) :  00000130
                    | + function block  :  0000000E
  07              PrintDueOutToEE
                  | Stack used (prev) :  0000013E
                  | + function block  :  00000004
  06            PrintDueout_Clr
                | Stack used (prev) :  00000142
                | + function block  :  00000002
  08                I2C_EE_BufferWrite
                    | Stack used (prev) :  00000130
                    | + function block  :  0000000E
                    |  Already listed
  07              PCBSQ_RecNumPt_ToEE
                  | Stack used (prev) :  0000013E
                  | + function block  :  00000004
  06            PCBSQ_RecClr
                | Stack used (prev) :  00000142
                | + function block  :  00000002
  06            curve_shift
                | Stack used (prev) :  00000130
                | + function block  :  00000002
  06            curve_shift
                | Stack used (prev) :  00000130
                | + function block  :  00000002
                |  Already listed
  06            channel_to_flash_fisrt
                | Stack used (prev) :  00000130
                | + function block  :  00000204
  06            CurveBufToFlash
                | Stack used (prev) :  00000130
                | + function block  :  0000020A
  07              I2C_EE_BufferWrite
                  | Stack used (prev) :  00000130
                  | + function block  :  0000000E
                  |  Already listed
  06            StateA1ToEE
                | Stack used (prev) :  0000013E
                | + function block  :  00000008
  07              I2C_EE_BufferWrite
                  | Stack used (prev) :  00000130
                  | + function block  :  0000000E
                  |  Already listed
  06            StateA2ToEE
                | Stack used (prev) :  0000013E
                | + function block  :  00000014
  07              I2C_EE_BufferWrite
                  | Stack used (prev) :  00000130
                  | + function block  :  0000000E
                  |  Already listed
  06            StateBToEE
                | Stack used (prev) :  0000013E
                | + function block  :  0000001C
  07              I2C_EE_BufferWrite
                  | Stack used (prev) :  00000130
                  | + function block  :  0000000E
                  |  Already listed
  06            GprsDueOutToEE
                | Stack used (prev) :  0000013E
                | + function block  :  00000004
  06            I2C_EE_BufferWrite
                | Stack used (prev) :  00000130
                | + function block  :  0000000E
                |  Already listed
  06            PrintDueOutToEE
                | Stack used (prev) :  0000013E
                | + function block  :  00000004
                |  Already listed
  07              I2C_EE_BufferWrite
                  | Stack used (prev) :  00000130
                  | + function block  :  0000000E
                  |  Already listed
  06            SmsKeySet
                | Stack used (prev) :  0000013E
                | + function block  :  00000004
  07              I2C_EE_BufferWrite
                  | Stack used (prev) :  00000130
                  | + function block  :  0000000E
                  |  Already listed
  06            Gprs_SF_XLH_ToEE
                | Stack used (prev) :  0000013E
                | + function block  :  00000004
  05          LoggerConfigFirst
              | Stack used (prev) :  0000033A
              | + function block  :  00000048
  04        SetFactorySetting
            | Stack used (prev) :  00000382
            | + function block  :  00000004
  05          CmdSendEnd
              | Stack used (prev) :  00000130
              | + function block  :  00000002
              |  Already listed
  05          CmdSendStart
              | Stack used (prev) :  00000130
              | + function block  :  0000000C
              |  Already listed
  05          U1SendByte
              | Stack used (prev) :  000000CE
              | + function block  :  00000002
              |  Already listed
  05          I2C_EE_BufferWrite
              | Stack used (prev) :  00000130
              | + function block  :  0000000E
              |  Already listed
  04        SetModelSerialNum
            | Stack used (prev) :  0000013E
            | + function block  :  00000004
  05          CmdSendEnd
              | Stack used (prev) :  00000130
              | + function block  :  00000002
              |  Already listed
  05          CmdSendStart
              | Stack used (prev) :  00000130
              | + function block  :  0000000C
              |  Already listed
  05          U1SendByte
              | Stack used (prev) :  000000CE
              | + function block  :  00000002
              |  Already listed
  06            LoggerAlarmOneSeek
                | Stack used (prev) :  00000130
                | + function block  :  00000010
  05          LoggerAlarmAllSeek
              | Stack used (prev) :  00000140
              | + function block  :  00000004
  07              ChALEnable
                  | Stack used (prev) :  00000130
                  | + function block  :  00000002
  06            HaveALEnable
                | Stack used (prev) :  00000132
                | + function block  :  00000002
  07              BuToLcdRam
                  | Stack used (prev) :  00000030
                  | + function block  :  00000008
                  |  Already listed
  06            LcdAlarmOn
                | Stack used (prev) :  00000130
                | + function block  :  00000002
  05          LcdAlarmEn
              | Stack used (prev) :  00000134
              | + function block  :  00000002
  05          LcdMode
              | Stack used (prev) :  00000130
              | + function block  :  00000002
  05          alarm_buf_to_flash
              | Stack used (prev) :  00000130
              | + function block  :  00000208
  05          LcdValue
              | Stack used (prev) :  00000130
              | + function block  :  00000002
  04        SetAlarm
            | Stack used (prev) :  00000338
            | + function block  :  00000004
  05          CmdSendEnd
              | Stack used (prev) :  00000130
              | + function block  :  00000002
              |  Already listed
  05          CmdSendStart
              | Stack used (prev) :  00000130
              | + function block  :  0000000C
              |  Already listed
  05          U1SendByte
              | Stack used (prev) :  000000CE
              | + function block  :  00000002
              |  Already listed
  05          I2C_EE_BufferWrite
              | Stack used (prev) :  00000130
              | + function block  :  0000000E
              |  Already listed
  04        SetSmsTitle
            | Stack used (prev) :  0000013E
            | + function block  :  00000004
  05          CmdSendEnd
              | Stack used (prev) :  00000130
              | + function block  :  00000002
              |  Already listed
  05          CmdSendStart
              | Stack used (prev) :  00000130
              | + function block  :  0000000C
              |  Already listed
  06            U1SendByte
                | Stack used (prev) :  000000CE
                | + function block  :  00000002
                |  Already listed
  06            I2cStart
                | Stack used (prev) :  000000CE
                | + function block  :  00000002
                |  Already listed
  06            I2cStart
                | Stack used (prev) :  000000CE
                | + function block  :  00000002
                |  Already listed
  06            I2cSendByte
                | Stack used (prev) :  000000CE
                | + function block  :  00000002
                |  Already listed
  06            I2cSendByte
                | Stack used (prev) :  000000CE
                | + function block  :  00000002
                |  Already listed
  06            I2cSendByte
                | Stack used (prev) :  000000CE
                | + function block  :  00000002
                |  Already listed
  06            I2cSendByte
                | Stack used (prev) :  000000CE
                | + function block  :  00000002
                |  Already listed
  06            I2cRecByte
                | Stack used (prev) :  000000CE
                | + function block  :  00000004
                |  Already listed
  06            I2cAck
                | Stack used (prev) :  000000CE
                | + function block  :  00000002
                |  Already listed
  06            I2cAck
                | Stack used (prev) :  000000CE
                | + function block  :  00000002
                |  Already listed
  06            I2cStop
                | Stack used (prev) :  000000CE
                | + function block  :  00000002
                |  Already listed
  05          i2c_ee_read_to_pc
              | Stack used (prev) :  00000130
              | + function block  :  0000000C
  04        ReadSmsTitle
            | Stack used (prev) :  0000013C
            | + function block  :  00000004
  05          CmdSendEnd
              | Stack used (prev) :  00000130
              | + function block  :  00000002
              |  Already listed
  05          CmdSendStart
              | Stack used (prev) :  00000130
              | + function block  :  0000000C
              |  Already listed
  05          U1SendByte
              | Stack used (prev) :  000000CE
              | + function block  :  00000002
              |  Already listed
  06            I2C_EE_BufferWrite
                | Stack used (prev) :  00000130
                | + function block  :  0000000E
                |  Already listed
  05          SetPhoneToEE
              | Stack used (prev) :  0000013E
              | + function block  :  00000002
  04        SetPhone
            | Stack used (prev) :  00000140
            | + function block  :  00000026
  05          CmdSendEnd
              | Stack used (prev) :  00000130
              | + function block  :  00000002
              |  Already listed
  05          CmdSendStart
              | Stack used (prev) :  00000130
              | + function block  :  0000000C
              |  Already listed
  05          U1SendByte
              | Stack used (prev) :  000000CE
              | + function block  :  00000002
              |  Already listed
  05          I2C_EE_BufferRead
              | Stack used (prev) :  0000011A
              | + function block  :  0000000C
              |  Already listed
  04        ReadPhone
            | Stack used (prev) :  0000013C
            | + function block  :  0000002A
  05          CmdSendEnd
              | Stack used (prev) :  00000130
              | + function block  :  00000002
              |  Already listed
  05          CmdSendStart
              | Stack used (prev) :  00000130
              | + function block  :  0000000C
              |  Already listed
  05          RtcBcdToD10
              | Stack used (prev) :  00000130
              | + function block  :  00000004
  05          PrintDueout_Clr
              | Stack used (prev) :  00000142
              | + function block  :  00000002
              |  Already listed
  05          U1SendByte
              | Stack used (prev) :  000000CE
              | + function block  :  00000002
              |  Already listed
  05          PCBSQ_RecClr
              | Stack used (prev) :  00000142
              | + function block  :  00000002
              |  Already listed
  05          StateA1ToEE
              | Stack used (prev) :  0000013E
              | + function block  :  00000008
              |  Already listed
  05          StateA2ToEE
              | Stack used (prev) :  0000013E
              | + function block  :  00000014
              |  Already listed
  07              FilterChClr
                  | Stack used (prev) :  00000130
                  | + function block  :  00000002
  06            FilterClr
                | Stack used (prev) :  00000132
                | + function block  :  00000002
  05          RestartClr
              | Stack used (prev) :  00000134
              | + function block  :  00000002
  05          GprsDueOutToEE
              | Stack used (prev) :  0000013E
              | + function block  :  00000004
              |  Already listed
  05          LoggerStop
              | Stack used (prev) :  00000130
              | + function block  :  00000002
  06            Rtc_Is_Right
                | Stack used (prev) :  00000130
                | + function block  :  00000002
  06            RtcBcdToD10
                | Stack used (prev) :  00000130
                | + function block  :  00000004
                |  Already listed
  06            DateToSeconds
                | Stack used (prev) :  00000130
                | + function block  :  0000000C
  07              I2c2Start
                  | Stack used (prev) :  00000130
                  | + function block  :  00000002
  07              I2c2Start
                  | Stack used (prev) :  00000130
                  | + function block  :  00000002
                  |  Already listed
  07              I2c2SendByte
                  | Stack used (prev) :  00000130
                  | + function block  :  00000002
  07              I2c2SendByte
                  | Stack used (prev) :  00000130
                  | + function block  :  00000002
                  |  Already listed
  07              I2c2SendByte
                  | Stack used (prev) :  00000130
                  | + function block  :  00000002
                  |  Already listed
  07              I2c2RecByte
                  | Stack used (prev) :  00000130
                  | + function block  :  00000004
  07              I2c2RecByte
                  | Stack used (prev) :  00000130
                  | + function block  :  00000004
                  |  Already listed
  07              I2c2RecByte
                  | Stack used (prev) :  00000130
                  | + function block  :  00000004
                  |  Already listed
  07              I2c2RecByte
                  | Stack used (prev) :  00000130
                  | + function block  :  00000004
                  |  Already listed
  07              I2c2RecByte
                  | Stack used (prev) :  00000130
                  | + function block  :  00000004
                  |  Already listed
  07              I2c2RecByte
                  | Stack used (prev) :  00000130
                  | + function block  :  00000004
                  |  Already listed
  07              I2c2RecByte
                  | Stack used (prev) :  00000130
                  | + function block  :  00000004
                  |  Already listed
  07              I2c2Ack
                  | Stack used (prev) :  00000130
                  | + function block  :  00000002
  07              I2c2Ack
                  | Stack used (prev) :  00000130
                  | + function block  :  00000002
                  |  Already listed
  07              I2c2Ack
                  | Stack used (prev) :  00000130
                  | + function block  :  00000002
                  |  Already listed
  07              I2c2Ack
                  | Stack used (prev) :  00000130
                  | + function block  :  00000002
                  |  Already listed
  07              I2c2Ack
                  | Stack used (prev) :  00000130
                  | + function block  :  00000002
                  |  Already listed
  07              I2c2Ack
                  | Stack used (prev) :  00000130
                  | + function block  :  00000002
                  |  Already listed
  07              I2c2Ack
                  | Stack used (prev) :  00000130
                  | + function block  :  00000002
                  |  Already listed
  07              I2c2Stop
                  | Stack used (prev) :  00000130
                  | + function block  :  00000002
  06            RtcReadTime
                | Stack used (prev) :  00000134
                | + function block  :  00000006
  05          ReadRtcD10
              | Stack used (prev) :  0000013C
              | + function block  :  00000002
  07              I2c2Start
                  | Stack used (prev) :  00000130
                  | + function block  :  00000002
                  |  Already listed
  07              I2c2SendByte
                  | Stack used (prev) :  00000130
                  | + function block  :  00000002
                  |  Already listed
  07              I2c2SendByte
                  | Stack used (prev) :  00000130
                  | + function block  :  00000002
                  |  Already listed
  07              I2c2SendByte
                  | Stack used (prev) :  00000130
                  | + function block  :  00000002
                  |  Already listed
  07              I2c2Stop
                  | Stack used (prev) :  00000130
                  | + function block  :  00000002
                  |  Already listed
  06            RtcInit
                | Stack used (prev) :  00000132
                | + function block  :  00000002
  06            I2c2Start
                | Stack used (prev) :  00000130
                | + function block  :  00000002
                |  Already listed
  06            I2c2SendByte
                | Stack used (prev) :  00000130
                | + function block  :  00000002
                |  Already listed
  06            I2c2SendByte
                | Stack used (prev) :  00000130
                | + function block  :  00000002
                |  Already listed
  06            I2c2SendByte
                | Stack used (prev) :  00000130
                | + function block  :  00000002
                |  Already listed
  06            I2c2SendByte
                | Stack used (prev) :  00000130
                | + function block  :  00000002
                |  Already listed
  06            I2c2SendByte
                | Stack used (prev) :  00000130
                | + function block  :  00000002
                |  Already listed
  06            I2c2SendByte
                | Stack used (prev) :  00000130
                | + function block  :  00000002
                |  Already listed
  06            I2c2SendByte
                | Stack used (prev) :  00000130
                | + function block  :  00000002
                |  Already listed
  06            I2c2SendByte
                | Stack used (prev) :  00000130
                | + function block  :  00000002
                |  Already listed
  06            I2c2SendByte
                | Stack used (prev) :  00000130
                | + function block  :  00000002
                |  Already listed
  06            I2c2Stop
                | Stack used (prev) :  00000130
                | + function block  :  00000002
                |  Already listed
  05          RtcSetTime
              | Stack used (prev) :  00000134
              | + function block  :  00000004
  05          I2C_EE_BufferWrite
              | Stack used (prev) :  00000130
              | + function block  :  0000000E
              |  Already listed
  04        SetReStart
            | Stack used (prev) :  00000152
            | + function block  :  00000006
  05          CmdSendEnd
              | Stack used (prev) :  00000130
              | + function block  :  00000002
              |  Already listed
  05          CmdSendStart
              | Stack used (prev) :  00000130
              | + function block  :  0000000C
              |  Already listed
  05          LcdMode
              | Stack used (prev) :  00000130
              | + function block  :  00000002
              |  Already listed
  05          i2c_ee_read_to_pc
              | Stack used (prev) :  00000130
              | + function block  :  0000000C
              |  Already listed
  06            I2C_EE_BufferRead
                | Stack used (prev) :  0000011A
                | + function block  :  0000000C
                |  Already listed
  05          Gprs_PrtCAP_FromEE
              | Stack used (prev) :  00000130
              | + function block  :  0000000C
  06            I2C_EE_BufferRead
                | Stack used (prev) :  0000011A
                | + function block  :  0000000C
                |  Already listed
  05          Gprs_UpTime_FromEE
              | Stack used (prev) :  00000130
              | + function block  :  00000004
  06            I2C_EE_BufferRead
                | Stack used (prev) :  0000011A
                | + function block  :  0000000C
                |  Already listed
  05          GprsSleepFromEE
              | Stack used (prev) :  00000130
              | + function block  :  00000004
  04        ReadGprsInfo
            | Stack used (prev) :  0000013C
            | + function block  :  00000004
  05          CmdSendEnd
              | Stack used (prev) :  00000130
              | + function block  :  00000002
              |  Already listed
  05          CmdSendStart
              | Stack used (prev) :  00000130
              | + function block  :  0000000C
              |  Already listed
  05          U1SendByte
              | Stack used (prev) :  000000CE
              | + function block  :  00000002
              |  Already listed
  06            I2C_EE_BufferWrite
                | Stack used (prev) :  00000130
                | + function block  :  0000000E
                |  Already listed
  05          PCBSQ_RecTime_ToEE
              | Stack used (prev) :  0000013E
              | + function block  :  0000000A
  05          LcdMode
              | Stack used (prev) :  00000130
              | + function block  :  00000002
              |  Already listed
  05          I2C_EE_BufferWrite
              | Stack used (prev) :  00000130
              | + function block  :  0000000E
              |  Already listed
  05          Gprs_PrtCAP_FromEE
              | Stack used (prev) :  00000130
              | + function block  :  0000000C
              |  Already listed
  05          Gprs_UpTime_FromEE
              | Stack used (prev) :  00000130
              | + function block  :  00000004
              |  Already listed
  05          GprsSleepFromEE
              | Stack used (prev) :  00000130
              | + function block  :  00000004
              |  Already listed
  06            DogClear
                | Stack used (prev) :  00000130
                | + function block  :  00000002
  06            ErrorToRst
                | Stack used (prev) :  00000130
                | + function block  :  00000002
  05          GsmToPowOn
              | Stack used (prev) :  00000132
              | + function block  :  00000002
  04        SetGprsInfo
            | Stack used (prev) :  00000148
            | + function block  :  00000006
  05          CmdSendEnd
              | Stack used (prev) :  00000130
              | + function block  :  00000002
              |  Already listed
  05          CmdSendStart
              | Stack used (prev) :  00000130
              | + function block  :  0000000C
              |  Already listed
  05          U1SendByte
              | Stack used (prev) :  000000CE
              | + function block  :  00000002
              |  Already listed
  04        ReadRealValue
            | Stack used (prev) :  0000013C
            | + function block  :  00000008
  05          CmdSendEnd
              | Stack used (prev) :  00000130
              | + function block  :  00000002
              |  Already listed
  05          CmdSendStart
              | Stack used (prev) :  00000130
              | + function block  :  0000000C
              |  Already listed
  05          U1SendByte
              | Stack used (prev) :  000000CE
              | + function block  :  00000002
              |  Already listed
  04        ReadAdc
            | Stack used (prev) :  0000013C
            | + function block  :  0000000A
  05          CmdSendEnd
              | Stack used (prev) :  00000130
              | + function block  :  00000002
              |  Already listed
  05          CmdSendStart
              | Stack used (prev) :  00000130
              | + function block  :  0000000C
              |  Already listed
  05          U1SendByte
              | Stack used (prev) :  000000CE
              | + function block  :  00000002
              |  Already listed
  05          CurveFlashToBuf
              | Stack used (prev) :  00000130
              | + function block  :  00000008
  04        ReadCurve
            | Stack used (prev) :  0000013C
            | + function block  :  0000003C
  05          CmdSendEnd
              | Stack used (prev) :  00000130
              | + function block  :  00000002
              |  Already listed
  05          CmdSendStart
              | Stack used (prev) :  00000130
              | + function block  :  0000000C
              |  Already listed
  05          U1SendByte
              | Stack used (prev) :  000000CE
              | + function block  :  00000002
              |  Already listed
  05          CurveBufToFlash
              | Stack used (prev) :  00000130
              | + function block  :  0000020A
              |  Already listed
  04        SetCurve
            | Stack used (prev) :  0000033A
            | + function block  :  00000036
  05          CmdSendEnd
              | Stack used (prev) :  00000130
              | + function block  :  00000002
              |  Already listed
  05          CmdSendStart
              | Stack used (prev) :  00000130
              | + function block  :  0000000C
              |  Already listed
  05          U1SendByte
              | Stack used (prev) :  000000CE
              | + function block  :  00000002
              |  Already listed
  05          I2C_EE_BufferWrite
              | Stack used (prev) :  00000130
              | + function block  :  0000000E
              |  Already listed
  04        SetAddress
            | Stack used (prev) :  0000013E
            | + function block  :  00000004
  05          CmdSendEnd
              | Stack used (prev) :  00000130
              | + function block  :  00000002
              |  Already listed
  05          CmdSendStart
              | Stack used (prev) :  00000130
              | + function block  :  0000000C
              |  Already listed
  05          U1SendByte
              | Stack used (prev) :  000000CE
              | + function block  :  00000002
              |  Already listed
  05          LcdAlarmEn
              | Stack used (prev) :  00000134
              | + function block  :  00000002
              |  Already listed
  05          LcdMode
              | Stack used (prev) :  00000130
              | + function block  :  00000002
              |  Already listed
  05          StateA2ToEE
              | Stack used (prev) :  0000013E
              | + function block  :  00000014
              |  Already listed
  05          StateBToEE
              | Stack used (prev) :  0000013E
              | + function block  :  0000001C
              |  Already listed
  05          LoggerStop
              | Stack used (prev) :  00000130
              | + function block  :  00000002
              |  Already listed
  05          I2C_EE_BufferWrite
              | Stack used (prev) :  00000130
              | + function block  :  0000000E
              |  Already listed
  04        SetStateB
            | Stack used (prev) :  0000015A
            | + function block  :  00000006
  06            U1SendByte
                | Stack used (prev) :  000000CE
                | + function block  :  00000002
                |  Already listed
  06            ComSendH
                | Stack used (prev) :  000000CE
                | + function block  :  00000002
                |  Already listed
  06            ComSendL
                | Stack used (prev) :  000000CE
                | + function block  :  00000002
                |  Already listed
  05          U1SendStrPC
              | Stack used (prev) :  00000130
              | + function block  :  00000002
  04        SetGsmMontior
            | Stack used (prev) :  00000132
            | + function block  :  00000002
  05          CmdSendEnd
              | Stack used (prev) :  00000130
              | + function block  :  00000002
              |  Already listed
  05          CmdSendStart
              | Stack used (prev) :  00000130
              | + function block  :  0000000C
              |  Already listed
  05          RtcBcdToD10
              | Stack used (prev) :  00000130
              | + function block  :  00000004
              |  Already listed
  05          U1SendByte
              | Stack used (prev) :  000000CE
              | + function block  :  00000002
              |  Already listed
  05          RtcSetTime
              | Stack used (prev) :  00000134
              | + function block  :  00000004
              |  Already listed
  04        SetRtc
            | Stack used (prev) :  0000013C
            | + function block  :  00000004
  05          CmdSendEnd
              | Stack used (prev) :  00000130
              | + function block  :  00000002
              |  Already listed
  05          CmdSendStart
              | Stack used (prev) :  00000130
              | + function block  :  0000000C
              |  Already listed
  05          U1SendByte
              | Stack used (prev) :  000000CE
              | + function block  :  00000002
              |  Already listed
  04        Read_GPRS_DATA_Infor
            | Stack used (prev) :  0000013C
            | + function block  :  0000001A
  05          CmdSendEnd
              | Stack used (prev) :  00000130
              | + function block  :  00000002
              |  Already listed
  05          CmdSendStart
              | Stack used (prev) :  00000130
              | + function block  :  0000000C
              |  Already listed
  05          U1SendByte
              | Stack used (prev) :  000000CE
              | + function block  :  00000002
              |  Already listed
  05          StateA1ToEE
              | Stack used (prev) :  0000013E
              | + function block  :  00000008
              |  Already listed
  05          i2c_ee_read_to_pc
              | Stack used (prev) :  00000130
              | + function block  :  0000000C
              |  Already listed
  04        ReadLink
            | Stack used (prev) :  00000146
            | + function block  :  00000018
  04        U1Init
            | Stack used (prev) :  00000130
            | + function block  :  00000002
  03      CmdHexDeel
          | Stack used (prev) :  00000386
          | + function block  :  00000002
  05          CmdSendEnd
              | Stack used (prev) :  00000130
              | + function block  :  00000002
              |  Already listed
  05          CmdSendStart
              | Stack used (prev) :  00000130
              | + function block  :  0000000C
              |  Already listed
  05          U1SendByte
              | Stack used (prev) :  000000CE
              | + function block  :  00000002
              |  Already listed
  05          Gprs_SF_Send_Data
              | Stack used (prev) :  00000130
              | + function block  :  00000030
  04        Read_GPRS_DATA_Bag
            | Stack used (prev) :  00000160
            | + function block  :  0000000A
  03      CmdHexDownPag
          | Stack used (prev) :  0000016A
          | + function block  :  00000002
  03      ComSendH
          | Stack used (prev) :  000000CE
          | + function block  :  00000002
          |  Already listed
  03      ComSendL
          | Stack used (prev) :  000000CE
          | + function block  :  00000002
          |  Already listed
  03      ClrBuf
          | Stack used (prev) :  00000130
          | + function block  :  00000002
  03      WirelessEnd
          | Stack used (prev) :  00000130
          | + function block  :  00000002
  02    ComDeel
        | Stack used (prev) :  00000388
        | + function block  :  00000002
  03      U1Init
          | Stack used (prev) :  00000130
          | + function block  :  00000002
          |  Already listed
  03      U0Init
          | Stack used (prev) :  00000130
          | + function block  :  00000002
  03      KeyPortInit
          | Stack used (prev) :  00000130
          | + function block  :  00000002
  02    McuInit
        | Stack used (prev) :  00000132
        | + function block  :  00000004
  03      U1SendString
          | Stack used (prev) :  000000D0
          | + function block  :  00000002
          |  Already listed
  03      ComSendH
          | Stack used (prev) :  000000CE
          | + function block  :  00000002
          |  Already listed
  03      ComSendL
          | Stack used (prev) :  000000CE
          | + function block  :  00000002
          |  Already listed
  04        I2C_EE_BufferRead
            | Stack used (prev) :  0000011A
            | + function block  :  0000000C
            |  Already listed
  03      GprsDueOutFromEE
          | Stack used (prev) :  00000130
          | + function block  :  00000004
  04        BuToLcdRam
            | Stack used (prev) :  00000030
            | + function block  :  00000008
            |  Already listed
  03      LcdGsmXh
          | Stack used (prev) :  00000130
          | + function block  :  00000002
  03      LcdShowOn
          | Stack used (prev) :  00000130
          | + function block  :  00000002
  03      Gprs_PrtCAP_FromEE
          | Stack used (prev) :  00000130
          | + function block  :  0000000C
          |  Already listed
  03      Gprs_UpTime_FromEE
          | Stack used (prev) :  00000130
          | + function block  :  00000004
          |  Already listed
  03      GprsSleepFromEE
          | Stack used (prev) :  00000130
          | + function block  :  00000004
          |  Already listed
  04        I2C_EE_BufferRead
            | Stack used (prev) :  0000011A
            | + function block  :  0000000C
            |  Already listed
  03      PrintDueOutFromEE
          | Stack used (prev) :  00000130
          | + function block  :  00000004
  04        LcdGsmXh
            | Stack used (prev) :  00000130
            | + function block  :  00000002
            |  Already listed
  05          BuToLcdRam
              | Stack used (prev) :  00000030
              | + function block  :  00000008
              |  Already listed
  05          LcdClrUnit
              | Stack used (prev) :  00000130
              | + function block  :  00000002
  05          KeyDoing
              | Stack used (prev) :  00000130
              | + function block  :  00000002
  04        LcdOFFX
            | Stack used (prev) :  00000132
            | + function block  :  00000004
  03      SmsKeyOff
          | Stack used (prev) :  00000136
          | + function block  :  00000002
  04        FilterClr
            | Stack used (prev) :  00000132
            | + function block  :  00000002
            |  Already listed
  04        LcdGsmXh
            | Stack used (prev) :  00000130
            | + function block  :  00000002
            |  Already listed
  04        LcdShowOn
            | Stack used (prev) :  00000130
            | + function block  :  00000002
            |  Already listed
  05          BuToLcdRam
              | Stack used (prev) :  00000030
              | + function block  :  00000008
              |  Already listed
  05          LcdClrUnit
              | Stack used (prev) :  00000130
              | + function block  :  00000002
              |  Already listed
  04        LcdNN
            | Stack used (prev) :  00000132
            | + function block  :  00000006
  04        GsmToPowOn
            | Stack used (prev) :  00000132
            | + function block  :  00000002
            |  Already listed
  03      SmsKeyOn
          | Stack used (prev) :  00000138
          | + function block  :  00000002
  04        I2C_EE_BufferRead
            | Stack used (prev) :  0000011A
            | + function block  :  0000000C
            |  Already listed
  03      SmsKeyRead
          | Stack used (prev) :  00000130
          | + function block  :  00000004
  04        I2C_EE_BufferRead
            | Stack used (prev) :  0000011A
            | + function block  :  0000000C
            |  Already listed
  03      Gprs_SF_XLH_FromEE
          | Stack used (prev) :  00000130
          | + function block  :  00000004
  02    LoggerExtInt
        | Stack used (prev) :  0000013C
        | + function block  :  00000002
  04        I2C_EE_BufferWrite
            | Stack used (prev) :  00000130
            | + function block  :  0000000E
            |  Already listed
  03      PCBSQ_CapToEE
          | Stack used (prev) :  0000013E
          | + function block  :  00000006
  03      LcdAlarmEn
          | Stack used (prev) :  00000134
          | + function block  :  00000002
          |  Already listed
  04        bsq_allwaysSet
            | Stack used (prev) :  00000130
            | + function block  :  00000002
  05          I2C_EE_BufferRead
              | Stack used (prev) :  0000011A
              | + function block  :  0000000C
              |  Already listed
  04        PCBSQ_FromEE
            | Stack used (prev) :  00000130
            | + function block  :  0000000E
  03      bsq_init
          | Stack used (prev) :  0000013E
          | + function block  :  00000002
  03      LoggerConfigFirst
          | Stack used (prev) :  0000033A
          | + function block  :  00000048
          |  Already listed
  04        I2C_EE_BufferRead
            | Stack used (prev) :  0000011A
            | + function block  :  0000000C
            |  Already listed
  03      EEToStateA1
          | Stack used (prev) :  00000130
          | + function block  :  00000008
  04        I2C_EE_BufferRead
            | Stack used (prev) :  0000011A
            | + function block  :  0000000C
            |  Already listed
  03      EEToStateA2
          | Stack used (prev) :  00000130
          | + function block  :  00000014
  04        I2C_EE_BufferRead
            | Stack used (prev) :  0000011A
            | + function block  :  0000000C
            |  Already listed
  03      EEToStateB
          | Stack used (prev) :  00000130
          | + function block  :  0000001A
  03      RestartClr
          | Stack used (prev) :  00000134
          | + function block  :  00000002
          |  Already listed
  03      LcdNN
          | Stack used (prev) :  00000132
          | + function block  :  00000006
          |  Already listed
  03      ReadRtcD10
          | Stack used (prev) :  0000013C
          | + function block  :  00000002
          |  Already listed
  04        I2cStart
            | Stack used (prev) :  000000CE
            | + function block  :  00000002
            |  Already listed
  04        I2cSendByte
            | Stack used (prev) :  000000CE
            | + function block  :  00000002
            |  Already listed
  04        I2cStop
            | Stack used (prev) :  000000CE
            | + function block  :  00000002
            |  Already listed
  03      I2cSeekEE
          | Stack used (prev) :  00000130
          | + function block  :  00000006
  02    LoggerInit
        | Stack used (prev) :  00000382
        | + function block  :  0000000E
  04        U1SendStrPC
            | Stack used (prev) :  00000130
            | + function block  :  00000002
            |  Already listed
  04        RecAlarm
            | Stack used (prev) :  00000130
            | + function block  :  00000002
  05          PCBSQ_RecNumPt_ToEE
              | Stack used (prev) :  0000013E
              | + function block  :  00000004
              |  Already listed
  05          GprsDueOutToEE
              | Stack used (prev) :  0000013E
              | + function block  :  00000004
              |  Already listed
  05          GetBatt
              | Stack used (prev) :  00000026
              | + function block  :  00000002
              |  Already listed
  05          HavePow
              | Stack used (prev) :  00000130
              | + function block  :  00000002
  05          I2C_EE_BufferWrite
              | Stack used (prev) :  00000130
              | + function block  :  0000000E
              |  Already listed
  05          PrintDueOutToEE
              | Stack used (prev) :  0000013E
              | + function block  :  00000004
              |  Already listed
  04        PCBSQ_RecOne
            | Stack used (prev) :  00000142
            | + function block  :  0000002C
  04        LoggerAlarmAllSeek
            | Stack used (prev) :  00000140
            | + function block  :  00000004
            |  Already listed
  04        LcdOFFX
            | Stack used (prev) :  00000132
            | + function block  :  00000004
            |  Already listed
  04        ReadRtcD10
            | Stack used (prev) :  0000013C
            | + function block  :  00000002
            |  Already listed
  03      PCBSQ_Record
          | Stack used (prev) :  0000016E
          | + function block  :  0000000A
  05          Bell_Shan
              | Stack used (prev) :  00000130
              | + function block  :  00000002
  05          Bell_Off
              | Stack used (prev) :  00000130
              | + function block  :  00000002
  05          Bell_Off
              | Stack used (prev) :  00000130
              | + function block  :  00000002
              |  Already listed
  05          ChAlarm
              | Stack used (prev) :  00000130
              | + function block  :  00000002
  05          HaveALEnable
              | Stack used (prev) :  00000132
              | + function block  :  00000002
              |  Already listed
  07              I2C_EE_BufferRead
                  | Stack used (prev) :  0000011A
                  | + function block  :  0000000C
                  |  Already listed
  06            GetPhoneNumFromEE
                | Stack used (prev) :  00000130
                | + function block  :  00000004
  05          SmsAlarmStart
              | Stack used (prev) :  00000134
              | + function block  :  00000002
  05          SmsAlarmEnd
              | Stack used (prev) :  00000130
              | + function block  :  00000002
  04        LoggerAlarmDeel
            | Stack used (prev) :  00000136
            | + function block  :  00000002
  06            SeeChAlarm
                | Stack used (prev) :  00000130
                | + function block  :  00000002
  06            LcdAlarmEn
                | Stack used (prev) :  00000134
                | + function block  :  00000002
                |  Already listed
  06            LcdMode
                | Stack used (prev) :  00000130
                | + function block  :  00000002
                |  Already listed
  06            BuToLcdRam
                | Stack used (prev) :  00000030
                | + function block  :  00000008
                |  Already listed
  06            BuToLcdRam
                | Stack used (prev) :  00000030
                | + function block  :  00000008
                |  Already listed
  06            BuToLcdRam
                | Stack used (prev) :  00000030
                | + function block  :  00000008
                |  Already listed
  06            BuToLcdRam
                | Stack used (prev) :  00000030
                | + function block  :  00000008
                |  Already listed
  07              LcdA3dst
                  | Stack used (prev) :  00000130
                  | + function block  :  00000006
  07              LcdA3dst
                  | Stack used (prev) :  00000130
                  | + function block  :  00000006
                  |  Already listed
  07              LcdA3dst
                  | Stack used (prev) :  00000130
                  | + function block  :  00000006
                  |  Already listed
  07              LcdNull
                  | Stack used (prev) :  00000130
                  | + function block  :  00000002
  07              KeyDoing
                  | Stack used (prev) :  00000130
                  | + function block  :  00000002
                  |  Already listed
  06            LcdChNoValueA
                | Stack used (prev) :  00000136
                | + function block  :  0000000A
  06            LcdChNoValueA
                | Stack used (prev) :  00000136
                | + function block  :  0000000A
                |  Already listed
  07              LcdNull
                  | Stack used (prev) :  00000130
                  | + function block  :  00000002
                  |  Already listed
  07              LcdB3dst
                  | Stack used (prev) :  00000130
                  | + function block  :  00000006
  07              LcdB3dst
                  | Stack used (prev) :  00000130
                  | + function block  :  00000006
                  |  Already listed
  07              LcdB3dst
                  | Stack used (prev) :  00000130
                  | + function block  :  00000006
                  |  Already listed
  07              KeyDoing
                  | Stack used (prev) :  00000130
                  | + function block  :  00000002
                  |  Already listed
  06            LcdChNoValueB
                | Stack used (prev) :  00000136
                | + function block  :  0000000A
  06            LcdChNoValueB
                | Stack used (prev) :  00000136
                | + function block  :  0000000A
                |  Already listed
  06            LcdChNoValueB
                | Stack used (prev) :  00000136
                | + function block  :  0000000A
                |  Already listed
  06            LcdClrUnit
                | Stack used (prev) :  00000130
                | + function block  :  00000002
                |  Already listed
  06            LcdClrUnit
                | Stack used (prev) :  00000130
                | + function block  :  00000002
                |  Already listed
  06            Lcd1Laba
                | Stack used (prev) :  00000130
                | + function block  :  00000002
  06            Lcd1Unit
                | Stack used (prev) :  00000130
                | + function block  :  00000002
  06            Lcd2Laba
                | Stack used (prev) :  00000130
                | + function block  :  00000002
  06            Lcd2Unit
                | Stack used (prev) :  00000130
                | + function block  :  00000002
  06            KeyDoing
                | Stack used (prev) :  00000130
                | + function block  :  00000002
                |  Already listed
  05          LcdChNoDeel
              | Stack used (prev) :  00000140
              | + function block  :  0000000C
  04        LoggerLcdDeel
            | Stack used (prev) :  0000014C
            | + function block  :  00000002
  09                  GetMidCC
                      | Stack used (prev) :  00000130
                      | + function block  :  00000006
  09                  GetMidAvgCC
                      | Stack used (prev) :  00000130
                      | + function block  :  0000000E
  08                get_mid_value
                    | Stack used (prev) :  0000013E
                    | + function block  :  0000000A
  07              GetChFilterAd
                  | Stack used (prev) :  00000148
                  | + function block  :  00000020
  07              GetHumiValue
                  | Stack used (prev) :  00000130
                  | + function block  :  0000000E
  07              LoggerRecOne
                  | Stack used (prev) :  00000130
                  | + function block  :  00000002
  07              FilterChClr
                  | Stack used (prev) :  00000130
                  | + function block  :  00000002
                  |  Already listed
  07              KeyDoing
                  | Stack used (prev) :  00000130
                  | + function block  :  00000002
                  |  Already listed
  08                _Mod64u
                    | Stack used (prev) :  00000130
                    | + function block  :  00000014
  08                _Div64u
                    | Stack used (prev) :  00000130
                    | + function block  :  0000001C
  08                CurveFlashToBuf
                    | Stack used (prev) :  00000130
                    | + function block  :  00000008
                    |  Already listed
  07              AdcToValue
                  | Stack used (prev) :  0000014C
                  | + function block  :  0000004A
  06            LoggerCalculateValue
                | Stack used (prev) :  00000196
                | + function block  :  00000006
  06            LoggerAlarmAllSeek
                | Stack used (prev) :  00000140
                | + function block  :  00000004
                |  Already listed
  07              KeyDoing
                  | Stack used (prev) :  00000130
                  | + function block  :  00000002
                  |  Already listed
  06            LoggerSample
                | Stack used (prev) :  00000132
                | + function block  :  00000002
  05          SampleRealDo
              | Stack used (prev) :  0000019C
              | + function block  :  00000004
  04        SampleRecordDeel
            | Stack used (prev) :  000001A0
            | + function block  :  00000002
  03      LoggerWorkDeel
          | Stack used (prev) :  000001A2
          | + function block  :  00000002
  05          U1Init
              | Stack used (prev) :  00000130
              | + function block  :  00000002
              |  Already listed
  04        DownTimeOver
            | Stack used (prev) :  00000132
            | + function block  :  00000002
  03      TimeDecDeel
          | Stack used (prev) :  00000134
          | + function block  :  00000002
  04        BuToLcdRam
            | Stack used (prev) :  00000030
            | + function block  :  00000008
            |  Already listed
  04        LcdTime
            | Stack used (prev) :  00000130
            | + function block  :  0000000A
  04        LcdTime
            | Stack used (prev) :  00000130
            | + function block  :  0000000A
            |  Already listed
  04        LcdTime
            | Stack used (prev) :  00000130
            | + function block  :  0000000A
            |  Already listed
  04        LcdHourFlag
            | Stack used (prev) :  00000130
            | + function block  :  00000002
  04        LcdHourFlag
            | Stack used (prev) :  00000130
            | + function block  :  00000002
            |  Already listed
  04        LcdYearFlag
            | Stack used (prev) :  00000130
            | + function block  :  00000002
  04        LcdYearFlag
            | Stack used (prev) :  00000130
            | + function block  :  00000002
            |  Already listed
  04        LcdMonthFlag
            | Stack used (prev) :  00000130
            | + function block  :  00000002
  04        ReadRtcD10
            | Stack used (prev) :  0000013C
            | + function block  :  00000002
            |  Already listed
  03      LcdRtcTime
          | Stack used (prev) :  0000013E
          | + function block  :  00000002
  03      KeyTimeDe
          | Stack used (prev) :  00000130
          | + function block  :  00000002
  03      GsmToPowOn
          | Stack used (prev) :  00000132
          | + function block  :  00000002
          |  Already listed
  06            U1Init
                | Stack used (prev) :  00000130
                | + function block  :  00000002
                |  Already listed
  06            ComSendL
                | Stack used (prev) :  000000CE
                | + function block  :  00000002
                |  Already listed
  05          PrintEnd
              | Stack used (prev) :  00000132
              | + function block  :  00000002
  06            U1SendString
                | Stack used (prev) :  000000D0
                | + function block  :  00000002
                |  Already listed
  06            U1SendByte
                | Stack used (prev) :  000000CE
                | + function block  :  00000002
                |  Already listed
  05          GoOneHang
              | Stack used (prev) :  00000130
              | + function block  :  00000004
  05          GoOneHang
              | Stack used (prev) :  00000130
              | + function block  :  00000004
              |  Already listed
  05          GoOneHang
              | Stack used (prev) :  00000130
              | + function block  :  00000004
              |  Already listed
  05          U1SendString
              | Stack used (prev) :  000000D0
              | + function block  :  00000002
              |  Already listed
  05          Gprs_SF_Send_Data
              | Stack used (prev) :  00000130
              | + function block  :  00000030
              |  Already listed
  04        PrintDeel
            | Stack used (prev) :  00000160
            | + function block  :  00000006
  05          U1SendString
              | Stack used (prev) :  000000D0
              | + function block  :  00000002
              |  Already listed
  05          U1SendValue
              | Stack used (prev) :  000000D0
              | + function block  :  0000000E
              |  Already listed
  05          U1SendStrPC
              | Stack used (prev) :  00000130
              | + function block  :  00000002
              |  Already listed
  05          U1SendByte
              | Stack used (prev) :  000000CE
              | + function block  :  00000002
              |  Already listed
  05          ComSendH
              | Stack used (prev) :  000000CE
              | + function block  :  00000002
              |  Already listed
  05          ComSendL
              | Stack used (prev) :  000000CE
              | + function block  :  00000002
              |  Already listed
  05          GprsDataHav
              | Stack used (prev) :  00000130
              | + function block  :  00000002
  06            Gprs_SF_Send_Data
                | Stack used (prev) :  00000130
                | + function block  :  00000030
                |  Already listed
  06            UxSendByte
                | Stack used (prev) :  000000D0
                | + function block  :  00000004
                |  Already listed
  06            UxSendByte
                | Stack used (prev) :  000000D0
                | + function block  :  00000004
                |  Already listed
  05          Gprs_SF_Tramit_Data
              | Stack used (prev) :  00000160
              | + function block  :  00000004
  07              U0SendByte
                  | Stack used (prev) :  000000CE
                  | + function block  :  00000002
                  |  Already listed
  06            U0SendString
                | Stack used (prev) :  00000130
                | + function block  :  00000002
  06            U1SendStrPC
                | Stack used (prev) :  00000130
                | + function block  :  00000002
                |  Already listed
  06            DogClear
                | Stack used (prev) :  00000130
                | + function block  :  00000002
                |  Already listed
  05          GsmToPowOff
              | Stack used (prev) :  00000132
              | + function block  :  00000002
  06            U0SendString
                | Stack used (prev) :  00000130
                | + function block  :  00000002
                |  Already listed
  06            U0SendByte
                | Stack used (prev) :  000000CE
                | + function block  :  00000002
                |  Already listed
  06            U1SendString
                | Stack used (prev) :  000000D0
                | + function block  :  00000002
                |  Already listed
  06            U1SendByte
                | Stack used (prev) :  000000CE
                | + function block  :  00000002
                |  Already listed
  06            ComSendH
                | Stack used (prev) :  000000CE
                | + function block  :  00000002
                |  Already listed
  06            ComSendL
                | Stack used (prev) :  000000CE
                | + function block  :  00000002
                |  Already listed
  06            u16ToS5
                | Stack used (prev) :  00000130
                | + function block  :  0000000C
  06            I2C_EE_BufferRead
                | Stack used (prev) :  0000011A
                | + function block  :  0000000C
                |  Already listed
  05          SendIpPortFromEE
              | Stack used (prev) :  0000013C
              | + function block  :  00000046
  05          GsmIsFree
              | Stack used (prev) :  00000130
              | + function block  :  00000002
  05          ErrorToRst
              | Stack used (prev) :  00000130
              | + function block  :  00000002
              |  Already listed
  05          ErrorToRst
              | Stack used (prev) :  00000130
              | + function block  :  00000002
              |  Already listed
  04        Gprs_SF_Deel
            | Stack used (prev) :  00000182
            | + function block  :  00000004
  05          U0SendString
              | Stack used (prev) :  00000130
              | + function block  :  00000002
              |  Already listed
  05          SF_Exit_Tc_Clr
              | Stack used (prev) :  00000130
              | + function block  :  00000002
  04        Gprs_Exit_Close_Deel
            | Stack used (prev) :  00000132
            | + function block  :  00000002
  04        GsmToPowOff
            | Stack used (prev) :  00000132
            | + function block  :  00000002
            |  Already listed
  05          HaveALEnable
              | Stack used (prev) :  00000132
              | + function block  :  00000002
              |  Already listed
  05          GetPhoneNumFromEE
              | Stack used (prev) :  00000130
              | + function block  :  00000004
              |  Already listed
  05          GsmIsFree
              | Stack used (prev) :  00000130
              | + function block  :  00000002
              |  Already listed
  06            ClrBuf
                | Stack used (prev) :  00000130
                | + function block  :  00000002
                |  Already listed
  07              I2C_EE_BufferRead
                  | Stack used (prev) :  0000011A
                  | + function block  :  0000000C
                  |  Already listed
  06            GetPhoneHaoFromEE
                | Stack used (prev) :  00000130
                | + function block  :  00000004
  08                I2C_EE_BufferRead
                    | Stack used (prev) :  0000011A
                    | + function block  :  0000000C
                    |  Already listed
  07              GetSmsTitleUni
                  | Stack used (prev) :  00000130
                  | + function block  :  00000006
  06            GetPowUni
                | Stack used (prev) :  00000136
                | + function block  :  00000006
  06            PhoneIsRight
                | Stack used (prev) :  00000130
                | + function block  :  00000002
  05          SmsPowReady
              | Stack used (prev) :  0000013C
              | + function block  :  00000004
  04        SmsPowDeel
            | Stack used (prev) :  00000140
            | + function block  :  00000002
  05          U1SendStrPC
              | Stack used (prev) :  00000130
              | + function block  :  00000002
              |  Already listed
  05          PCBSQ_RecOne
              | Stack used (prev) :  00000142
              | + function block  :  0000002C
              |  Already listed
  05          HavePow
              | Stack used (prev) :  00000130
              | + function block  :  00000002
              |  Already listed
  05          ReadRtcD10
              | Stack used (prev) :  0000013C
              | + function block  :  00000002
              |  Already listed
  06            HaveALEnable
                | Stack used (prev) :  00000132
                | + function block  :  00000002
                |  Already listed
  06            GetPhoneNumFromEE
                | Stack used (prev) :  00000130
                | + function block  :  00000004
                |  Already listed
  05          SmsPowStart
              | Stack used (prev) :  00000134
              | + function block  :  00000002
  05          GsmReTime
              | Stack used (prev) :  00000130
              | + function block  :  00000002
  04        PowInDeel
            | Stack used (prev) :  0000016E
            | + function block  :  00000002
  05          U0Init
              | Stack used (prev) :  00000130
              | + function block  :  00000002
              |  Already listed
  05          U0SendString
              | Stack used (prev) :  00000130
              | + function block  :  00000002
              |  Already listed
  05          U1SendStrPC
              | Stack used (prev) :  00000130
              | + function block  :  00000002
              |  Already listed
  05          DogReset
              | Stack used (prev) :  00000130
              | + function block  :  00000002
  05          LcdGsmXh
              | Stack used (prev) :  00000130
              | + function block  :  00000002
              |  Already listed
  05          SF_Exit_Tc_Clr
              | Stack used (prev) :  00000130
              | + function block  :  00000002
              |  Already listed
  05          DogClear
              | Stack used (prev) :  00000130
              | + function block  :  00000002
              |  Already listed
  05          GsmReTime
              | Stack used (prev) :  00000130
              | + function block  :  00000002
              |  Already listed
  04        GsmFireDeel
            | Stack used (prev) :  00000132
            | + function block  :  00000002
  05          U0SendString
              | Stack used (prev) :  00000130
              | + function block  :  00000002
              |  Already listed
  05          GsmIsFree
              | Stack used (prev) :  00000130
              | + function block  :  00000002
              |  Already listed
  06            ClrBuf
                | Stack used (prev) :  00000130
                | + function block  :  00000002
                |  Already listed
  05          U0Clear
              | Stack used (prev) :  00000132
              | + function block  :  00000002
  04        CsqDeel
            | Stack used (prev) :  00000134
            | + function block  :  00000002
  05          GetPhoneNumFromEE
              | Stack used (prev) :  00000130
              | + function block  :  00000004
              |  Already listed
  05          GsmIsFree
              | Stack used (prev) :  00000130
              | + function block  :  00000002
              |  Already listed
  06            ClrBuf
                | Stack used (prev) :  00000130
                | + function block  :  00000002
                |  Already listed
  06            GetPhoneHaoFromEE
                | Stack used (prev) :  00000130
                | + function block  :  00000004
                |  Already listed
  07              GetSmsTitleUni
                  | Stack used (prev) :  00000130
                  | + function block  :  00000006
                  |  Already listed
  06            GetSmsUni
                | Stack used (prev) :  00000136
                | + function block  :  00000026
  06            PhoneIsRight
                | Stack used (prev) :  00000130
                | + function block  :  00000002
                |  Already listed
  05          SmsAlarmReady
              | Stack used (prev) :  0000015C
              | + function block  :  00000004
  04        SmsAlarmDeel
            | Stack used (prev) :  00000160
            | + function block  :  00000002
  05          GsmIsFree
              | Stack used (prev) :  00000130
              | + function block  :  00000002
              |  Already listed
  06            U0SendString
                | Stack used (prev) :  00000130
                | + function block  :  00000002
                |  Already listed
  06            U0SendByte
                | Stack used (prev) :  000000CE
                | + function block  :  00000002
                |  Already listed
  05          U0SmsLen
              | Stack used (prev) :  00000132
              | + function block  :  00000004
  04        SmsDeel
            | Stack used (prev) :  00000136
            | + function block  :  00000002
  05          U0SendString
              | Stack used (prev) :  00000130
              | + function block  :  00000002
              |  Already listed
  05          U1SendStrPC
              | Stack used (prev) :  00000130
              | + function block  :  00000002
              |  Already listed
  05          U0Clear
              | Stack used (prev) :  00000132
              | + function block  :  00000002
              |  Already listed
  05          GsmReTime
              | Stack used (prev) :  00000130
              | + function block  :  00000002
              |  Already listed
  04        GsmInitDeel
            | Stack used (prev) :  00000134
            | + function block  :  00000004
  05          GsmToPowOff
              | Stack used (prev) :  00000132
              | + function block  :  00000002
              |  Already listed
  05          GsmToPowOff
              | Stack used (prev) :  00000132
              | + function block  :  00000002
              |  Already listed
  05          ErrorToRst
              | Stack used (prev) :  00000130
              | + function block  :  00000002
              |  Already listed
  05          ErrorToRst
              | Stack used (prev) :  00000130
              | + function block  :  00000002
              |  Already listed
  04        DogDeel
            | Stack used (prev) :  00000134
            | + function block  :  00000002
  05          U1SendStrPC
              | Stack used (prev) :  00000130
              | + function block  :  00000002
              |  Already listed
  05          GsmToPowOff
              | Stack used (prev) :  00000132
              | + function block  :  00000002
              |  Already listed
  05          ErrorToRst
              | Stack used (prev) :  00000130
              | + function block  :  00000002
              |  Already listed
  04        GsmOnErrDeel
            | Stack used (prev) :  00000134
            | + function block  :  00000002
  03      GsmLoop
          | Stack used (prev) :  00000186
          | + function block  :  00000002
  02    LoggerLoop
        | Stack used (prev) :  000001A4
        | + function block  :  00000002
  04        BuSendByte
            | Stack used (prev) :  00000026
            | + function block  :  00000002
            |  Already listed
  04        BuSendByte
            | Stack used (prev) :  00000026
            | + function block  :  00000002
            |  Already listed
  04        BuSendByte
            | Stack used (prev) :  00000026
            | + function block  :  00000002
            |  Already listed
  04        BuSendByte
            | Stack used (prev) :  00000026
            | + function block  :  00000002
            |  Already listed
  04        BuSendByte
            | Stack used (prev) :  00000026
            | + function block  :  00000002
            |  Already listed
  04        BuSendByte
            | Stack used (prev) :  00000026
            | + function block  :  00000002
            |  Already listed
  04        BuSendByte
            | Stack used (prev) :  00000026
            | + function block  :  00000002
            |  Already listed
  04        BuSendByte
            | Stack used (prev) :  00000026
            | + function block  :  00000002
            |  Already listed
  04        BuSendByte
            | Stack used (prev) :  00000026
            | + function block  :  00000002
            |  Already listed
  04        BuSendByte
            | Stack used (prev) :  00000026
            | + function block  :  00000002
            |  Already listed
  04        BuSendByte
            | Stack used (prev) :  00000026
            | + function block  :  00000002
            |  Already listed
  04        BuSendByte
            | Stack used (prev) :  00000026
            | + function block  :  00000002
            |  Already listed
  03      LcdClear
          | Stack used (prev) :  00000130
          | + function block  :  00000006
  03      BuSendByte
          | Stack used (prev) :  00000026
          | + function block  :  00000002
          |  Already listed
  03      BuSendByte
          | Stack used (prev) :  00000026
          | + function block  :  00000002
          |  Already listed
  03      BuSendByte
          | Stack used (prev) :  00000026
          | + function block  :  00000002
          |  Already listed
  03      BuSendByte
          | Stack used (prev) :  00000026
          | + function block  :  00000002
          |  Already listed
  03      BuSendByte
          | Stack used (prev) :  00000026
          | + function block  :  00000002
          |  Already listed
  03      BuSendByte
          | Stack used (prev) :  00000026
          | + function block  :  00000002
          |  Already listed
  03      BuSendByte
          | Stack used (prev) :  00000026
          | + function block  :  00000002
          |  Already listed
  03      BuSendByte
          | Stack used (prev) :  00000026
          | + function block  :  00000002
          |  Already listed
  03      BuSendByte
          | Stack used (prev) :  00000026
          | + function block  :  00000002
          |  Already listed
  03      BuSendByte
          | Stack used (prev) :  00000026
          | + function block  :  00000002
          |  Already listed
  02    BuInit
        | Stack used (prev) :  00000136
        | + function block  :  00000004
  03      BuToLcdRam
          | Stack used (prev) :  00000030
          | + function block  :  00000008
          |  Already listed
  02    LcdMcuRst
        | Stack used (prev) :  00000130
        | + function block  :  00000002
  05          PrintDueout_Clr
              | Stack used (prev) :  00000142
              | + function block  :  00000002
              |  Already listed
  05          LcdNN
              | Stack used (prev) :  00000132
              | + function block  :  00000006
              |  Already listed
  04        PrintKeyClr
            | Stack used (prev) :  00000144
            | + function block  :  00000002
  06            PrintEnd
                | Stack used (prev) :  00000132
                | + function block  :  00000002
                |  Already listed
  07              U1Init
                  | Stack used (prev) :  00000130
                  | + function block  :  00000002
                  |  Already listed
  07              ComSendH
                  | Stack used (prev) :  000000CE
                  | + function block  :  00000002
                  |  Already listed
  06            PrintStart
                | Stack used (prev) :  00000132
                | + function block  :  00000002
  06            GoOneHang
                | Stack used (prev) :  00000130
                | + function block  :  00000004
                |  Already listed
  06            GoOneHang
                | Stack used (prev) :  00000130
                | + function block  :  00000004
                |  Already listed
  06            GoOneHang
                | Stack used (prev) :  00000130
                | + function block  :  00000004
                |  Already listed
  07              U1SendByte
                  | Stack used (prev) :  000000CE
                  | + function block  :  00000002
                  |  Already listed
  06            SetIni
                | Stack used (prev) :  00000130
                | + function block  :  00000004
  07              U1SendByte
                  | Stack used (prev) :  000000CE
                  | + function block  :  00000002
                  |  Already listed
  06            SetCnPrint
                | Stack used (prev) :  00000130
                | + function block  :  00000004
  06            U1SendString
                | Stack used (prev) :  000000D0
                | + function block  :  00000002
                |  Already listed
  06            U1SendByte
                | Stack used (prev) :  000000CE
                | + function block  :  00000002
                |  Already listed
  06            LcdNN
                | Stack used (prev) :  00000132
                | + function block  :  00000006
                |  Already listed
  06            i2c_ee_read_to_pc
                | Stack used (prev) :  00000130
                | + function block  :  0000000C
                |  Already listed
  05          Print_SF_Data
              | Stack used (prev) :  0000013C
              | + function block  :  00000008
  05          LcdOFFX
              | Stack used (prev) :  00000132
              | + function block  :  00000004
              |  Already listed
  04        Print_Begin
            | Stack used (prev) :  00000144
            | + function block  :  00000002
  04        Bell_Off
            | Stack used (prev) :  00000130
            | + function block  :  00000002
            |  Already listed
  04        PCBSQ_RecOne
            | Stack used (prev) :  00000142
            | + function block  :  0000002C
            |  Already listed
  05          LoggerAlarmAllSeek
              | Stack used (prev) :  00000140
              | + function block  :  00000004
              |  Already listed
  05          HaveALEnable
              | Stack used (prev) :  00000132
              | + function block  :  00000002
              |  Already listed
  05          ChAEnToFlash
              | Stack used (prev) :  00000130
              | + function block  :  00000208
  05          LcdAlarmOn
              | Stack used (prev) :  00000130
              | + function block  :  00000002
              |  Already listed
  05          LcdValue
              | Stack used (prev) :  00000130
              | + function block  :  00000002
              |  Already listed
  04        KeyAlarm
            | Stack used (prev) :  00000338
            | + function block  :  00000002
  04        ReadRtcD10
            | Stack used (prev) :  0000013C
            | + function block  :  00000002
            |  Already listed
  04        SmsKeyOff
            | Stack used (prev) :  00000136
            | + function block  :  00000002
            |  Already listed
  04        SmsKeyOn
            | Stack used (prev) :  00000138
            | + function block  :  00000002
            |  Already listed
  04        SmsKeySet
            | Stack used (prev) :  0000013E
            | + function block  :  00000004
            |  Already listed
  03      KeyDecDeel
          | Stack used (prev) :  0000033A
          | + function block  :  00000004
  02    Loop2Deel
        | Stack used (prev) :  0000033E
        | + function block  :  00000002
  03      KeyIntSet
          | Stack used (prev) :  0000004C
          | + function block  :  00000002
          |  Already listed
  03      Key_1_Do
          | Stack used (prev) :  00000130
          | + function block  :  00000002
  04        KeyAlarm
            | Stack used (prev) :  00000338
            | + function block  :  00000002
            |  Already listed
  03      Key_2_Do
          | Stack used (prev) :  0000033A
          | + function block  :  00000002
  03      Key_3_Do
          | Stack used (prev) :  00000130
          | + function block  :  00000002
  03      Key_4_Do
          | Stack used (prev) :  00000130
          | + function block  :  00000002
  02    KeyDeel
        | Stack used (prev) :  0000033C
        | + function block  :  00000002
  04        GetPosS
            | Stack used (prev) :  00000130
            | + function block  :  00000004
  03      CompBuf
          | Stack used (prev) :  00000134
          | + function block  :  00000008
  03      GetPosS
          | Stack used (prev) :  00000130
          | + function block  :  00000004
          |  Already listed
  03      BellNn
          | Stack used (prev) :  00000130
          | + function block  :  00000002
  04        U1SendByte
            | Stack used (prev) :  000000CE
            | + function block  :  00000002
            |  Already listed
  03      U1SendBuf
          | Stack used (prev) :  00000130
          | + function block  :  00000006
  03      U1SendString
          | Stack used (prev) :  000000D0
          | + function block  :  00000002
          |  Already listed
  03      U1SendValue
          | Stack used (prev) :  000000D0
          | + function block  :  0000000E
          |  Already listed
  03      U1SendStrPC
          | Stack used (prev) :  00000130
          | + function block  :  00000002
          |  Already listed
  03      U1SendByte
          | Stack used (prev) :  000000CE
          | + function block  :  00000002
          |  Already listed
  03      ComSendH
          | Stack used (prev) :  000000CE
          | + function block  :  00000002
          |  Already listed
  03      ComSendL
          | Stack used (prev) :  000000CE
          | + function block  :  00000002
          |  Already listed
  03      ClrBuf
          | Stack used (prev) :  00000130
          | + function block  :  00000002
          |  Already listed
  03      GprsDataHav
          | Stack used (prev) :  00000130
          | + function block  :  00000002
          |  Already listed
  03      LcdGsmXh
          | Stack used (prev) :  00000130
          | + function block  :  00000002
          |  Already listed
  04        CompBuf
            | Stack used (prev) :  00000134
            | + function block  :  00000008
            |  Already listed
  04        U1SendBuf
            | Stack used (prev) :  00000130
            | + function block  :  00000006
            |  Already listed
  04        U1SendStrPC
            | Stack used (prev) :  00000130
            | + function block  :  00000002
            |  Already listed
  04        U1SendByte
            | Stack used (prev) :  000000CE
            | + function block  :  00000002
            |  Already listed
  04        ComSendH
            | Stack used (prev) :  000000CE
            | + function block  :  00000002
            |  Already listed
  04        ComSendL
            | Stack used (prev) :  000000CE
            | + function block  :  00000002
            |  Already listed
  05          U1SendValue
              | Stack used (prev) :  000000D0
              | + function block  :  0000000E
              |  Already listed
  05          U1SendStrPC
              | Stack used (prev) :  00000130
              | + function block  :  00000002
              |  Already listed
  05          U1SendByte
              | Stack used (prev) :  000000CE
              | + function block  :  00000002
              |  Already listed
  05          ComSendH
              | Stack used (prev) :  000000CE
              | + function block  :  00000002
              |  Already listed
  05          ComSendL
              | Stack used (prev) :  000000CE
              | + function block  :  00000002
              |  Already listed
  05          GprsDueOutToEE
              | Stack used (prev) :  0000013E
              | + function block  :  00000004
              |  Already listed
  04        GprsSendOk
            | Stack used (prev) :  00000142
            | + function block  :  00000002
  05          Rtc_Is_Right
              | Stack used (prev) :  00000130
              | + function block  :  00000002
              |  Already listed
  05          RtcD10ToBcd
              | Stack used (prev) :  000000CE
              | + function block  :  0000000A
              |  Already listed
  05          RtcBcdToD10
              | Stack used (prev) :  00000130
              | + function block  :  00000004
              |  Already listed
  05          SecondsToDate
              | Stack used (prev) :  000000CE
              | + function block  :  00000010
              |  Already listed
  05          DateToSeconds
              | Stack used (prev) :  00000130
              | + function block  :  0000000C
              |  Already listed
  05          GetPosS
              | Stack used (prev) :  00000130
              | + function block  :  00000004
              |  Already listed
  05          CheckBuf
              | Stack used (prev) :  00000130
              | + function block  :  00000002
  06            CheckNum
                | Stack used (prev) :  00000130
                | + function block  :  00000002
  05          CK_Buf_Num
              | Stack used (prev) :  00000132
              | + function block  :  00000004
  05          U1SendStrPC
              | Stack used (prev) :  00000130
              | + function block  :  00000002
              |  Already listed
  05          get_add
              | Stack used (prev) :  00000130
              | + function block  :  00000004
  05          alarm_buf_to_flash
              | Stack used (prev) :  00000130
              | + function block  :  00000208
              |  Already listed
  05          UxSendByte
              | Stack used (prev) :  000000D0
              | + function block  :  00000004
              |  Already listed
  05          UxSendByte
              | Stack used (prev) :  000000D0
              | + function block  :  00000004
              |  Already listed
  05          UxSendByte
              | Stack used (prev) :  000000D0
              | + function block  :  00000004
              |  Already listed
  05          UxSendByte
              | Stack used (prev) :  000000D0
              | + function block  :  00000004
              |  Already listed
  05          UxSendByte
              | Stack used (prev) :  000000D0
              | + function block  :  00000004
              |  Already listed
  05          UxSendByte
              | Stack used (prev) :  000000D0
              | + function block  :  00000004
              |  Already listed
  05          UxSendByte
              | Stack used (prev) :  000000D0
              | + function block  :  00000004
              |  Already listed
  05          UxSendByte
              | Stack used (prev) :  000000D0
              | + function block  :  00000004
              |  Already listed
  05          UxSendByte
              | Stack used (prev) :  000000D0
              | + function block  :  00000004
              |  Already listed
  05          UxSendByte
              | Stack used (prev) :  000000D0
              | + function block  :  00000004
              |  Already listed
  05          UxSendByte
              | Stack used (prev) :  000000D0
              | + function block  :  00000004
              |  Already listed
  05          UxSendByte
              | Stack used (prev) :  000000D0
              | + function block  :  00000004
              |  Already listed
  05          UxSendByte
              | Stack used (prev) :  000000D0
              | + function block  :  00000004
              |  Already listed
  05          UxSendByte
              | Stack used (prev) :  000000D0
              | + function block  :  00000004
              |  Already listed
  05          UxSendByte
              | Stack used (prev) :  000000D0
              | + function block  :  00000004
              |  Already listed
  05          UxSendByte
              | Stack used (prev) :  000000D0
              | + function block  :  00000004
              |  Already listed
  05          UxSendByte
              | Stack used (prev) :  000000D0
              | + function block  :  00000004
              |  Already listed
  05          UxSendByte
              | Stack used (prev) :  000000D0
              | + function block  :  00000004
              |  Already listed
  05          UxSendByte
              | Stack used (prev) :  000000D0
              | + function block  :  00000004
              |  Already listed
  05          UxSendByte
              | Stack used (prev) :  000000D0
              | + function block  :  00000004
              |  Already listed
  05          ReadRtcD10
              | Stack used (prev) :  0000013C
              | + function block  :  00000002
              |  Already listed
  05          RtcSetTime
              | Stack used (prev) :  00000134
              | + function block  :  00000004
              |  Already listed
  05          I2C_EE_BufferRead
              | Stack used (prev) :  0000011A
              | + function block  :  0000000C
              |  Already listed
  05          I2C_EE_BufferWrite
              | Stack used (prev) :  00000130
              | + function block  :  0000000E
              |  Already listed
  05          i2c_ee_read_to_u0
              | Stack used (prev) :  000000D2
              | + function block  :  0000000C
              |  Already listed
  04        ServerCmdSet
            | Stack used (prev) :  00000338
            | + function block  :  0000002E
  04        GsmIsFree
            | Stack used (prev) :  00000130
            | + function block  :  00000002
            |  Already listed
  04        U0Clear
            | Stack used (prev) :  00000132
            | + function block  :  00000002
            |  Already listed
  03      Gprs_SF_Recv_Do
          | Stack used (prev) :  00000366
          | + function block  :  0000000A
  03      GsmToPowOff
          | Stack used (prev) :  00000132
          | + function block  :  00000002
          |  Already listed
  03      GsmIsFree
          | Stack used (prev) :  00000130
          | + function block  :  00000002
          |  Already listed
  03      ErrorToRst
          | Stack used (prev) :  00000130
          | + function block  :  00000002
          |  Already listed
  04        SmsAlarmOneOk
            | Stack used (prev) :  00000130
            | + function block  :  00000002
  05          HaveALEnable
              | Stack used (prev) :  00000132
              | + function block  :  00000002
              |  Already listed
  04        SmsPowOneOk
            | Stack used (prev) :  00000134
            | + function block  :  00000002
  03      SmsSendOk
          | Stack used (prev) :  00000136
          | + function block  :  00000002
  03      PhoneIsRight
          | Stack used (prev) :  00000130
          | + function block  :  00000002
          |  Already listed
  04        U0SendString
            | Stack used (prev) :  00000130
            | + function block  :  00000002
            |  Already listed
  04        U0SendByte
            | Stack used (prev) :  000000CE
            | + function block  :  00000002
            |  Already listed
  04        GetInternationalPhone
            | Stack used (prev) :  00000130
            | + function block  :  00000006
  04        hex_2_ascii
            | Stack used (prev) :  00000130
            | + function block  :  0000001C
  04        hex_2_ascii
            | Stack used (prev) :  00000130
            | + function block  :  0000001C
            |  Already listed
  03      U0SmsPdu
          | Stack used (prev) :  0000014C
          | + function block  :  00000022
  04        ascii_2_hex
            | Stack used (prev) :  00000130
            | + function block  :  00000008
  04        ascii_2_hex
            | Stack used (prev) :  00000130
            | + function block  :  00000008
            |  Already listed
  04        decode
            | Stack used (prev) :  00000130
            | + function block  :  00000010
  04        GetPosC
            | Stack used (prev) :  00000130
            | + function block  :  00000004
  03      U0PduAnalyze
          | Stack used (prev) :  00000140
          | + function block  :  00000014
  04        GetPosS
            | Stack used (prev) :  00000130
            | + function block  :  00000004
            |  Already listed
  03      GetGsmXh
          | Stack used (prev) :  00000134
          | + function block  :  00000004
  03      GetGsmXh
          | Stack used (prev) :  00000134
          | + function block  :  00000004
          |  Already listed
  03      GetGsmXh
          | Stack used (prev) :  00000134
          | + function block  :  00000004
          |  Already listed
  04        ChALEnable
            | Stack used (prev) :  00000130
            | + function block  :  00000002
            |  Already listed
  04        ChAEnToFlash
            | Stack used (prev) :  00000130
            | + function block  :  00000208
            |  Already listed
  04        SetPhoneToEE
            | Stack used (prev) :  0000013E
            | + function block  :  00000002
            |  Already listed
  04        GetSmsUni
            | Stack used (prev) :  00000136
            | + function block  :  00000026
            |  Already listed
  04        alarm_buf_to_flash
            | Stack used (prev) :  00000130
            | + function block  :  00000208
            |  Already listed
  04        EnUniToAsc
            | Stack used (prev) :  00000130
            | + function block  :  00000004
  06            cf10
                | Stack used (prev) :  00000130
                | + function block  :  00000002
  06            GetPosC
                | Stack used (prev) :  00000130
                | + function block  :  00000004
                |  Already listed
  06            GetPosC
                | Stack used (prev) :  00000130
                | + function block  :  00000004
                |  Already listed
  07              IsNum
                  | Stack used (prev) :  00000130
                  | + function block  :  00000002
  06            GetNumFromStr
                | Stack used (prev) :  00000132
                | + function block  :  0000000A
  05          GetZvalueFromStr
              | Stack used (prev) :  0000013C
              | + function block  :  00000014
  05          GetZvalueFromStr
              | Stack used (prev) :  0000013C
              | + function block  :  00000014
              |  Already listed
  05          GetPosC
              | Stack used (prev) :  00000130
              | + function block  :  00000004
              |  Already listed
  05          GetPosC
              | Stack used (prev) :  00000130
              | + function block  :  00000004
              |  Already listed
  05          GetPosC
              | Stack used (prev) :  00000130
              | + function block  :  00000004
              |  Already listed
  05          GetPosC
              | Stack used (prev) :  00000130
              | + function block  :  00000004
              |  Already listed
  05          GetPosC
              | Stack used (prev) :  00000130
              | + function block  :  00000004
              |  Already listed
  05          GetPosC
              | Stack used (prev) :  00000130
              | + function block  :  00000004
              |  Already listed
  04        bbFromLHDstr
            | Stack used (prev) :  00000150
            | + function block  :  00000010
  05          GetPosC
              | Stack used (prev) :  00000130
              | + function block  :  00000004
              |  Already listed
  05          GetPosC
              | Stack used (prev) :  00000130
              | + function block  :  00000004
              |  Already listed
  05          GetPosC
              | Stack used (prev) :  00000130
              | + function block  :  00000004
              |  Already listed
  05          GetPosC
              | Stack used (prev) :  00000130
              | + function block  :  00000004
              |  Already listed
  05          GetPosC
              | Stack used (prev) :  00000130
              | + function block  :  00000004
              |  Already listed
  05          GetPosC
              | Stack used (prev) :  00000130
              | + function block  :  00000004
              |  Already listed
  05          GetPosC
              | Stack used (prev) :  00000130
              | + function block  :  00000004
              |  Already listed
  05          GetPosC
              | Stack used (prev) :  00000130
              | + function block  :  00000004
              |  Already listed
  05          GetNumFromStr
              | Stack used (prev) :  00000132
              | + function block  :  0000000A
              |  Already listed
  05          GetNumFromStr
              | Stack used (prev) :  00000132
              | + function block  :  0000000A
              |  Already listed
  05          GetNumFromStr
              | Stack used (prev) :  00000132
              | + function block  :  0000000A
              |  Already listed
  04        bbFromXYZDstr
            | Stack used (prev) :  0000013C
            | + function block  :  0000001E
  05          Rtc_Is_Right
              | Stack used (prev) :  00000130
              | + function block  :  00000002
              |  Already listed
  05          RtcD10ToBcd
              | Stack used (prev) :  000000CE
              | + function block  :  0000000A
              |  Already listed
  05          RtcBcdToD10
              | Stack used (prev) :  00000130
              | + function block  :  00000004
              |  Already listed
  05          SecondsToDate
              | Stack used (prev) :  000000CE
              | + function block  :  00000010
              |  Already listed
  05          DateToSeconds
              | Stack used (prev) :  00000130
              | + function block  :  0000000C
              |  Already listed
  05          U1SendStrPC
              | Stack used (prev) :  00000130
              | + function block  :  00000002
              |  Already listed
  05          RtcSetTime
              | Stack used (prev) :  00000134
              | + function block  :  00000004
              |  Already listed
  05          GetPosC
              | Stack used (prev) :  00000130
              | + function block  :  00000004
              |  Already listed
  05          GetPosC
              | Stack used (prev) :  00000130
              | + function block  :  00000004
              |  Already listed
  05          GetPosC
              | Stack used (prev) :  00000130
              | + function block  :  00000004
              |  Already listed
  05          GetPosC
              | Stack used (prev) :  00000130
              | + function block  :  00000004
              |  Already listed
  05          GetNumFromStr
              | Stack used (prev) :  00000132
              | + function block  :  0000000A
              |  Already listed
  04        rtcFromCTDstr
            | Stack used (prev) :  0000013C
            | + function block  :  00000024
  04        IsNum
            | Stack used (prev) :  00000130
            | + function block  :  00000002
            |  Already listed
  04        GetUniSet
            | Stack used (prev) :  00000130
            | + function block  :  00000004
  03      SmsRecDeel
          | Stack used (prev) :  00000338
          | + function block  :  00000040
  03      GetPosC
          | Stack used (prev) :  00000130
          | + function block  :  00000004
          |  Already listed
  02    U0Deel
        | Stack used (prev) :  00000378
        | + function block  :  00000012
  02    AdcInit
        | Stack used (prev) :  00000130
        | + function block  :  0000000A
  01  main
      | Stack used (prev) :  00000390
      | + function block  :  00000002
  <-Sub-tree of type: Function tree
    | Stack used          :  00000392


  ->Sub-tree of type: Function tree
                             CSTACK
    | Stack used (prev) :  00000392
  01  exit
      | Stack used (prev) :  00000392
      | + function block  :  00000002
  <-Sub-tree of type: Function tree
    | Stack used          :  00000394


  ->Sub-tree of type: Function tree
                             CSTACK
    | Stack used (prev) :  00000394
  01  __data16_memzero
      | Stack used (prev) :  00000394
      | + function block  :  00000002
  <-Sub-tree of type: Function tree
    | Stack used          :  00000396


  ->Sub-tree of type: Function tree
                             CSTACK
    | Stack used (prev) :  00000396
  02    memcpy
        | Stack used (prev) :  000000CA
        | + function block  :  00000002
        |  Already listed
  01  __data16_memcpy
      | Stack used (prev) :  00000396
      | + function block  :  00000002
  <-Sub-tree of type: Function tree
    | Stack used          :  00000398


  ->Sub-tree of type: Function tree
                             CSTACK
    | Stack used (prev) :  00000398
  02    mul
        | Stack used (prev) :  00000398
        | + function block  :  00000014
  01  _Mul32u32uto64iHw
      | Stack used (prev) :  000003AC
      | + function block  :  00000002
  <-Sub-tree of type: Function tree
    | Stack used          :  000003AE


  ->Sub-tree of type: Function tree
                             CSTACK
    | Stack used (prev) :  000003AE
  01  _Mul64iHw
      | Stack used (prev) :  000003AE
      | + function block  :  0000001A
  <-Sub-tree of type: Function tree
    | Stack used          :  000003C8



                ****************************************
                *                                      *
                *        END OF CROSS REFERENCE        *
                *                                      *
                ****************************************

 33 516 bytes of CODE  memory
  2 836 bytes of DATA  memory (+ 129 absolute )
  1 302 bytes of CONST memory

Errors: none
Warnings: none

